ccopy_reg
_reconstructor
p0
(cFWCore.ParameterSet.Config
Process
p1
c__builtin__
object
p2
Ntp3
Rp4
(dp5
S'CaloGeometryBuilder'
p6
g0
(cFWCore.ParameterSet.Modules
ESProducer
p7
g2
Ntp8
Rp9
(dp10
S'_Parameterizable__parameterNames'
p11
(lp12
S'SelectedCalos'
p13
asS'_isFrozen'
p14
I00
sS'_isModified'
p15
I00
sS'_lineNumber'
p16
I56
sS'_filename'
p17
S'/cvmfs/cms.cern.ch/slc7_amd64_gcc820/cms/cmssw-patch/CMSSW_10_6_20_patch1/python/FWCore/ParameterSet/Modules.py'
p18
sg13
g0
(cFWCore.ParameterSet.Types
vstring
p19
c__builtin__
list
p20
(lp21
S'HCAL'
p22
aS'ZDC'
p23
aS'CASTOR'
p24
aS'EcalBarrel'
p25
aS'EcalEndcap'
p26
aS'EcalPreshower'
p27
aS'TOWER'
p28
atp29
Rp30
(dp31
g14
I00
sS'_ParameterTypeBase__isTracked'
p32
I01
sg15
I00
sS'_nPerLine'
p33
I1
sbsS'_Labelable__label'
p34
g6
sS'_TypedParameterizable__type'
p35
g6
sbsS'_Process__sequences'
p36
(dp37
S'endOfProcess_withComparison'
p38
g0
(cFWCore.ParameterSet.SequenceTypes
Sequence
p39
g2
Ntp40
Rp41
(dp42
g14
I00
sS'_seq'
p43
g0
(cFWCore.ParameterSet.SequenceTypes
_SequenceCollection
p44
g2
Ntp45
Rp46
(dp47
S'_collection'
p48
(lp49
g0
(cFWCore.ParameterSet.Modules
EDProducer
p50
g2
Ntp51
Rp52
(dp53
g11
(lp54
S'deleteAfterCopy'
p55
aS'Verbosity'
p56
aS'Frequency'
p57
aS'Name'
p58
aS'MEPathToSave'
p59
asg14
I00
sg15
I00
sg55
g0
(cFWCore.ParameterSet.Types
bool
p60
g2
Ntp61
Rp62
(dp63
g14
I00
sg32
I00
sS'_value'
p64
I01
sg15
I00
sbsg17
S'/cvmfs/cms.cern.ch/slc7_amd64_gcc820/cms/cmssw-patch/CMSSW_10_6_20_patch1/python/DQMServices/Components/MEtoEDMConverter_cfi.py'
p65
sg56
g0
(cFWCore.ParameterSet.Types
int32
p66
g2
Ntp67
Rp68
(dp69
g14
I00
sg32
I00
sg64
I0
sg15
I00
sbsg57
g0
(g66
g2
Ntp70
Rp71
(dp72
g14
I00
sg32
I00
sg64
I50
sg15
I00
sbsg16
I10
sg34
S'MEtoEDMConverter'
p73
sg59
g0
(cFWCore.ParameterSet.Types
string
p74
g2
Ntp75
Rp76
(dp77
g14
I00
sg32
I00
sg64
S''
p78
sg15
I00
sbsg35
g73
sg58
g0
(g74
g2
Ntp79
Rp80
(dp81
g14
I00
sg32
I00
sg64
g73
sg15
I00
sbsbag0
(cFWCore.ParameterSet.Modules
EDAnalyzer
p82
g2
Ntp83
Rp84
(dp85
g11
(lp86
S'Diffgoodness'
p87
aS'processRef'
p88
aS'dirDepth'
p89
aS'KSgoodness'
p90
aS'runInstance'
p91
aS'MEtoEDMLabel'
p92
aS'autoProcess'
p93
aS'processNew'
p94
aS'OverAllgoodness'
p95
aS'lumiInstance'
p96
asg14
I00
sg87
g0
(cFWCore.ParameterSet.Types
double
p97
g2
Ntp98
Rp99
(dp100
g14
I00
sg32
I01
sg64
F0.1
sg15
I00
sbsg88
g0
(g74
g2
Ntp101
Rp102
(dp103
g14
I00
sg32
I01
sg64
S'HLT'
p104
sg15
I00
sbsg15
I00
sg16
I20
sg89
g0
(cFWCore.ParameterSet.Types
uint32
p105
g2
Ntp106
Rp107
(dp108
g14
I00
sg32
I01
sg64
I1
sg15
I00
sbsg17
S'/cvmfs/cms.cern.ch/slc7_amd64_gcc820/cms/cmssw-patch/CMSSW_10_6_20_patch1/python/DQMServices/Components/MEtoMEComparitor_cfi.py'
p109
sg90
g0
(g97
g2
Ntp110
Rp111
(dp112
g14
I00
sg32
I01
sg64
F0.9
sg15
I00
sbsg91
g0
(g74
g2
Ntp113
Rp114
(dp115
g14
I00
sg32
I01
sg64
S'MEtoEDMConverterRun'
p116
sg15
I00
sbsg92
g0
(g74
g2
Ntp117
Rp118
(dp119
g14
I00
sg32
I01
sg64
g73
sg15
I00
sbsg96
g0
(g74
g2
Ntp120
Rp121
(dp122
g14
I00
sg32
I01
sg64
S'MEtoEDMConverterLumi'
p123
sg15
I00
sbsg93
g0
(g60
g2
Ntp124
Rp125
(dp126
g14
I00
sg32
I01
sg64
I01
sg15
I00
sbsg34
S'MEtoMEComparitor'
p127
sg94
g0
(g74
g2
Ntp128
Rp129
(dp130
g14
I00
sg32
I01
sg64
S'RERECO'
p131
sg15
I00
sbsg95
g0
(g97
g2
Ntp132
Rp133
(dp134
g14
I00
sg32
I01
sg64
F0.9
sg15
I00
sbsg35
g127
sbasbsg34
g38
sg15
I00
sS'_tasks'
p135
g0
(cFWCore.ParameterSet.OrderedSet
OrderedSet
p136
g2
Ntp137
Rp138
(dp139
S'map'
p140
(dp141
sS'end'
p142
(lp143
Nag143
ag143
asbsbsS'endOfProcess'
p144
g0
(g39
g2
Ntp145
Rp146
(dp147
g14
I00
sg43
g0
(g44
g2
Ntp148
Rp149
(dp150
g48
(lp151
g52
asbsg34
g144
sg15
I00
sg135
g0
(g136
g2
Ntp152
Rp153
(dp154
g140
(dp155
sg142
(lp156
Nag156
ag156
asbsbssS'_Process__source'
p157
g0
(cFWCore.ParameterSet.Modules
Source
p158
g2
Ntp159
Rp160
(dp161
g11
(lp162
S'fileNames'
p163
aS'skipEvents'
p164
asg14
I00
sg15
I01
sg16
I196
sg17
g18
sg164
g0
(g105
g2
Ntp165
Rp166
(dp167
g14
I00
sg32
I00
sg64
I0
sg15
I00
sbsg163
g0
(g19
g20
(lp168
tp169
Rp170
(dp171
g14
I00
sg32
I00
sg15
I00
sg33
I1
sbsg35
S'PoolSource'
p172
sbsg38
g41
sS'hcalDDDSimConstants'
p173
g0
(g7
g2
Ntp174
Rp175
(dp176
g11
(lp177
S'appendToDataLabel'
p178
asg14
I00
sg178
g0
(g74
g2
Ntp179
Rp180
(dp181
g14
I00
sg32
I01
sg64
g78
sg15
I00
sbsg15
I00
sg16
I56
sg17
g18
sg34
g173
sg35
S'HcalDDDSimConstantsESModule'
p182
sbsS'source'
p183
g160
sS'CaloTowerGeometryFromDBEP'
p184
g0
(g7
g2
Ntp185
Rp186
(dp187
g11
(lp188
S'applyAlignment'
p189
asg14
I00
sg15
I00
sg16
I56
sg17
g18
sg34
g184
sg189
g0
(g60
g2
Ntp190
Rp191
(dp192
g14
I00
sg32
I01
sg64
I00
sg15
I00
sbsg35
g184
sbsS'_Process__InExtendCall'
p193
I00
sS'_Process__producers'
p194
(dp195
g73
g52
ssS'siPixelQualityESProducer'
p196
g0
(g7
g2
Ntp197
Rp198
(dp199
g11
(lp200
S'siPixelQualityLabel'
p201
aS'ListOfRecordToMerge'
p202
asg14
I00
sg15
I01
sg16
I56
sg201
g0
(g74
g2
Ntp203
Rp204
(dp205
g14
I00
sg32
I01
sg64
g78
sg15
I00
sbsg17
g18
sg202
g0
(cFWCore.ParameterSet.Types
VPSet
p206
g20
(lp207
g0
(cFWCore.ParameterSet.Types
PSet
p208
g2
Ntp209
Rp210
(dp211
g14
I00
sg32
I01
sg15
I00
sS'record'
p212
g0
(g74
g2
Ntp213
Rp214
(dp215
g14
I00
sg32
I01
sg64
S'SiPixelQualityFromDbRcd'
p216
sg15
I00
sbsS'tag'
p217
g0
(g74
g2
Ntp218
Rp219
(dp220
g14
I00
sg32
I01
sg64
g78
sg15
I00
sbsg11
(lp221
g212
ag217
asbag0
(g208
g2
Ntp222
Rp223
(dp224
g14
I00
sg32
I01
sg15
I00
sg212
g0
(g74
g2
Ntp225
Rp226
(dp227
g14
I00
sg32
I01
sg64
S'SiPixelDetVOffRcd'
p228
sg15
I00
sbsg217
g0
(g74
g2
Ntp229
Rp230
(dp231
g14
I00
sg32
I01
sg64
g78
sg15
I00
sbsg11
(lp232
g212
ag217
asbatp233
Rp234
(dp235
g14
I00
sg32
I01
sg15
I00
sg33
I1
sbsg34
g196
sg35
S'SiPixelQualityESProducer'
p236
sbsS'GlobalTag'
p237
g0
(cFWCore.ParameterSet.Modules
ESSource
p238
g2
Ntp239
Rp240
(dp241
g11
(lp242
S'DBParameters'
p243
aS'connect'
p244
aS'globaltag'
p245
aS'RefreshEachRun'
p246
aS'pfnPrefix'
p247
aS'snapshotTime'
p248
aS'toGet'
p249
aS'pfnPostfix'
p250
aS'RefreshAlways'
p251
aS'ReconnectEachRun'
p252
aS'RefreshOpenIOVs'
p253
aS'DumpStat'
p254
asg14
I00
sg17
S'/cvmfs/cms.cern.ch/slc7_amd64_gcc820/cms/cmssw-patch/CMSSW_10_6_20_patch1/python/CondCore/ESSources/CondDBESSource_cfi.py'
p255
sg15
I01
sg245
g0
(g74
g2
Ntp256
Rp257
(dp258
g14
I00
sg32
I01
sg64
S'106X_mc2017_realistic_v8'
p259
sg15
I01
sbsg246
g0
(g60
g2
Ntp260
Rp261
(dp262
g14
I00
sg32
I00
sg64
I00
sg15
I00
sbsg247
g0
(g74
g2
Ntp263
Rp264
(dp265
g14
I00
sg32
I00
sg64
g78
sg15
I00
sbsg248
g0
(g74
g2
Ntp266
Rp267
(dp268
g14
I00
sg32
I01
sg64
g78
sg15
I00
sbsg249
g0
(g206
g20
(lp269
tp270
Rp271
(dp272
g14
I00
sg32
I01
sg15
I00
sg33
I1
sbsg250
g0
(g74
g2
Ntp273
Rp274
(dp275
g14
I00
sg32
I00
sg64
g78
sg15
I00
sbsg243
g0
(g208
g2
Ntp276
Rp277
(dp278
g14
I00
sg32
I01
sS'authenticationPath'
p279
g0
(g74
g2
Ntp280
Rp281
(dp282
g14
I00
sg32
I00
sg64
g78
sg15
I00
sbsg15
I00
sS'messageLevel'
p283
g0
(g66
g2
Ntp284
Rp285
(dp286
g14
I00
sg32
I00
sg64
I0
sg15
I00
sbsg11
(lp287
g283
aS'security'
p288
aS'authenticationSystem'
p289
ag279
asg288
g0
(g74
g2
Ntp290
Rp291
(dp292
g14
I00
sg32
I00
sg64
g78
sg15
I00
sbsg289
g0
(g66
g2
Ntp293
Rp294
(dp295
g14
I00
sg32
I00
sg64
I0
sg15
I00
sbsbsg251
g0
(g60
g2
Ntp296
Rp297
(dp298
g14
I00
sg32
I00
sg64
I00
sg15
I00
sbsg16
I19
sg244
g0
(g74
g2
Ntp299
Rp300
(dp301
g14
I00
sg32
I01
sg64
S'frontier://FrontierProd/CMS_CONDITIONS'
p302
sg15
I00
sbsg252
g0
(g60
g2
Ntp303
Rp304
(dp305
g14
I00
sg32
I00
sg64
I00
sg15
I00
sbsg34
g237
sg253
g0
(g60
g2
Ntp306
Rp307
(dp308
g14
I00
sg32
I00
sg64
I00
sg15
I00
sbsg254
g0
(g60
g2
Ntp309
Rp310
(dp311
g14
I00
sg32
I00
sg64
I00
sg15
I00
sbsg35
S'PoolDBESSource'
p312
sbsS'TransientTrackBuilderESProducer'
p313
g0
(g7
g2
Ntp314
Rp315
(dp316
g11
(lp317
S'ComponentName'
p318
asg14
I00
sg15
I00
sg16
I56
sg17
g18
sg318
g0
(g74
g2
Ntp319
Rp320
(dp321
g14
I00
sg32
I01
sg64
S'TransientTrackBuilder'
p322
sg15
I00
sbsg34
g313
sg35
g313
sbsS'_Process__endpaths'
p323
g0
(cFWCore.ParameterSet.DictTypes
SortedKeysDict
p324
c__builtin__
dict
p325
(dp326
tp327
Rp328
(dp329
S'list'
p330
(lp331
sbsS'p'
p332
g0
(cFWCore.ParameterSet.SequenceTypes
Path
p333
g2
Ntp334
Rp335
(dp336
g14
I00
sg43
g0
(g44
g2
Ntp337
Rp338
(dp339
g48
(lp340
g0
(g82
g2
Ntp341
Rp342
(dp343
g11
(lp344
S'outFile'
p345
aS'isData'
p346
asg14
I00
sg15
I00
sg346
g0
(g60
g2
Ntp347
Rp348
(dp349
g14
I00
sg32
I01
sg64
I00
sg15
I00
sbsg16
I142
sg17
S'/afs/cern.ch/work/m/mabarros/public/MonteCarlo/SPS/CMSSW_10_6_20_patch1/src/NanoAOD/NanoAnalyzer/nanoanalyzer_mc.py'
p350
sg345
g0
(g74
g2
Ntp351
Rp352
(dp353
g14
I00
sg32
I01
sg64
S'Jpsi_9to30_Dstar_SPS_2017_13TeV_NanoAODPlus.root'
p354
sg15
I00
sbsg34
S'nano'
p355
sg35
S'NanoAnalyzer'
p356
sbasbsg34
g332
sg15
I00
sg135
g0
(g136
g2
Ntp357
Rp358
(dp359
g140
(dp360
sg142
(lp361
Nag361
ag361
asbsbsS'MuonDetLayerGeometryESProducer'
p362
g0
(g7
g2
Ntp363
Rp364
(dp365
g11
(lp366
sg14
I00
sg15
I00
sg16
I56
sg17
g18
sg34
g362
sg35
g362
sbsS'EcalEndcapGeometryFromDBEP'
p367
g0
(g7
g2
Ntp368
Rp369
(dp370
g11
(lp371
g189
asg14
I00
sg15
I01
sg16
I56
sg17
g18
sg34
g367
sg189
g0
(g60
g2
Ntp372
Rp373
(dp374
g14
I00
sg32
I01
sg64
I01
sg15
I01
sbsg35
g367
sbsg127
g84
sS'MessageLogger'
p375
g0
(cFWCore.ParameterSet.Modules
Service
p376
g2
Ntp377
Rp378
(dp379
g14
I00
sS'suppressInfo'
p380
g0
(g19
g20
(lp381
tp382
Rp383
(dp384
g14
I00
sg32
I00
sg15
I00
sg33
I1
sbsS'suppressDebug'
p385
g0
(g19
g20
(lp386
tp387
Rp388
(dp389
g14
I00
sg32
I00
sg15
I00
sg33
I1
sbsS'cout'
p390
g0
(g208
g2
Ntp391
Rp392
(dp393
g14
I00
sg32
I00
sS'placeholder'
p394
g0
(g60
g2
Ntp395
Rp396
(dp397
g14
I00
sg32
I00
sg64
I01
sg15
I00
sbsg15
I00
sg11
(lp398
g394
asbsg16
I14
sS'debugModules'
p399
g0
(g19
g20
(lp400
tp401
Rp402
(dp403
g14
I00
sg32
I00
sg15
I00
sg33
I1
sbsg35
g375
sS'fwkJobReports'
p404
g0
(g19
g20
(lp405
S'FrameworkJobReport'
p406
atp407
Rp408
(dp409
g14
I00
sg32
I00
sg15
I00
sg33
I1
sbsg11
(lp410
g380
aS'debugs'
p411
ag385
ag390
aS'cerr_stats'
p412
aS'warnings'
p413
aS'default'
p414
aS'statistics'
p415
aS'cerr'
p416
ag406
aS'suppressWarning'
p417
aS'errors'
p418
aS'destinations'
p419
ag399
aS'infos'
p420
aS'categories'
p421
ag404
asg415
g0
(g19
g20
(lp422
g412
atp423
Rp424
(dp425
g14
I00
sg32
I00
sg15
I00
sg33
I1
sbsg17
g18
sg419
g0
(g19
g20
(lp426
g413
ag418
ag420
ag411
ag390
ag416
atp427
Rp428
(dp429
g14
I00
sg32
I00
sg15
I00
sg33
I1
sbsg411
g0
(g208
g2
Ntp430
Rp431
(dp432
g14
I00
sg32
I00
sg394
g0
(g60
g2
Ntp433
Rp434
(dp435
g14
I00
sg32
I00
sg64
I01
sg15
I00
sbsg15
I00
sg11
(lp436
g394
asbsg413
g0
(g208
g2
Ntp437
Rp438
(dp439
g14
I00
sg32
I00
sg394
g0
(g60
g2
Ntp440
Rp441
(dp442
g14
I00
sg32
I00
sg64
I01
sg15
I00
sbsg15
I00
sg11
(lp443
g394
asbsg418
g0
(g208
g2
Ntp444
Rp445
(dp446
g14
I00
sg32
I00
sg394
g0
(g60
g2
Ntp447
Rp448
(dp449
g14
I00
sg32
I00
sg64
I01
sg15
I00
sbsg15
I00
sg11
(lp450
g394
asbsg406
g0
(g208
g2
Ntp451
Rp452
(dp453
g14
I00
sg32
I00
sg15
I00
sg414
g0
(g208
g2
Ntp454
Rp455
(dp456
g14
I00
sg32
I00
sS'limit'
p457
g0
(g66
g2
Ntp458
Rp459
(dp460
g14
I00
sg32
I00
sg64
I0
sg15
I00
sbsg15
I00
sg11
(lp461
g457
asbsS'FwkJob'
p462
g0
(g208
g2
Ntp463
Rp464
(dp465
g14
I00
sg32
I00
sg15
I00
sg457
g0
(g66
g2
Ntp466
Rp467
(dp468
g14
I00
sg32
I00
sg64
I10000000
sg15
I00
sbsg11
(lp469
S'optionalPSet'
p470
ag457
asg470
g0
(g60
g2
Ntp471
Rp472
(dp473
g14
I00
sg32
I00
sg64
I01
sg15
I00
sbsbsg11
(lp474
g414
ag470
ag462
asg470
g0
(g60
g2
Ntp475
Rp476
(dp477
g14
I00
sg32
I00
sg64
I01
sg15
I00
sbsbsg417
g0
(g19
g20
(lp478
tp479
Rp480
(dp481
g14
I00
sg32
I00
sg15
I00
sg33
I1
sbsg420
g0
(g208
g2
Ntp482
Rp483
(dp484
g14
I00
sg32
I00
sg15
I00
sS'Root_NoDictionary'
p485
g0
(g208
g2
Ntp486
Rp487
(dp488
g14
I00
sg32
I00
sg15
I00
sg457
g0
(g66
g2
Ntp489
Rp490
(dp491
g14
I00
sg32
I00
sg64
I0
sg15
I00
sbsg11
(lp492
g470
ag457
asg470
g0
(g60
g2
Ntp493
Rp494
(dp495
g14
I00
sg32
I00
sg64
I01
sg15
I00
sbsbsg11
(lp496
g470
ag485
ag394
asg470
g0
(g60
g2
Ntp497
Rp498
(dp499
g14
I00
sg32
I00
sg64
I01
sg15
I00
sbsg394
g0
(g60
g2
Ntp500
Rp501
(dp502
g14
I00
sg32
I00
sg64
I01
sg15
I00
sbsbsg421
g0
(g19
g20
(lp503
g462
aS'FwkReport'
p504
aS'FwkSummary'
p505
ag485
aS'Nano'
p506
atp507
Rp508
(dp509
g14
I00
sg32
I00
sg15
I00
sg33
I1
sbsg15
I00
sg412
g0
(g208
g2
Ntp510
Rp511
(dp512
g14
I00
sg32
I00
sg15
I00
sg470
g0
(g60
g2
Ntp513
Rp514
(dp515
g14
I00
sg32
I00
sg64
I01
sg15
I00
sbsg11
(lp516
S'threshold'
p517
aS'output'
p518
ag470
asg517
g0
(g74
g2
Ntp519
Rp520
(dp521
g14
I00
sg32
I00
sg64
S'WARNING'
p522
sg15
I00
sbsg518
g0
(g74
g2
Ntp523
Rp524
(dp525
g14
I00
sg32
I00
sg64
g416
sg15
I00
sbsbsg414
g0
(g208
g2
Ntp526
Rp527
(dp528
g14
I00
sg32
I00
sg15
I00
sg11
(lp529
sbsS'_inProcess'
p530
I00
sg416
g0
(g208
g2
Ntp531
Rp532
(dp533
g14
I00
sg32
I00
sS'noTimeStamps'
p534
g0
(g60
g2
Ntp535
Rp536
(dp537
g14
I00
sg32
I00
sg64
I00
sg15
I00
sbsg504
g0
(g208
g2
Ntp538
Rp539
(dp540
g14
I00
sg32
I00
sg15
I01
sS'reportEvery'
p541
g0
(g66
g2
Ntp542
Rp543
(dp544
g14
I00
sg32
I00
sg64
I1000
sg15
I01
sbsg457
g0
(g66
g2
Ntp545
Rp546
(dp547
g14
I00
sg32
I00
sg64
I10000000
sg15
I00
sbsg11
(lp548
g541
ag470
ag457
asg470
g0
(g60
g2
Ntp549
Rp550
(dp551
g14
I00
sg32
I00
sg64
I01
sg15
I00
sbsbsg15
I01
sg414
g0
(g208
g2
Ntp552
Rp553
(dp554
g14
I00
sg32
I00
sg457
g0
(g66
g2
Ntp555
Rp556
(dp557
g14
I00
sg32
I00
sg64
I10000000
sg15
I00
sbsg15
I00
sg11
(lp558
g457
asbsg485
g0
(g208
g2
Ntp559
Rp560
(dp561
g14
I00
sg32
I00
sg15
I00
sg457
g0
(g66
g2
Ntp562
Rp563
(dp564
g14
I00
sg32
I00
sg64
I0
sg15
I00
sbsg11
(lp565
g470
ag457
asg470
g0
(g60
g2
Ntp566
Rp567
(dp568
g14
I00
sg32
I00
sg64
I01
sg15
I00
sbsbsS'INFO'
p569
g0
(g208
g2
Ntp570
Rp571
(dp572
g14
I00
sg32
I00
sg457
g0
(g66
g2
Ntp573
Rp574
(dp575
g14
I00
sg32
I00
sg64
I0
sg15
I00
sbsg15
I00
sg11
(lp576
g457
asbsg470
g0
(g60
g2
Ntp577
Rp578
(dp579
g14
I00
sg32
I00
sg64
I01
sg15
I00
sbsg462
g0
(g208
g2
Ntp580
Rp581
(dp582
g14
I00
sg32
I00
sg15
I00
sg457
g0
(g66
g2
Ntp583
Rp584
(dp585
g14
I00
sg32
I00
sg64
I0
sg15
I00
sbsg11
(lp586
g470
ag457
asg470
g0
(g60
g2
Ntp587
Rp588
(dp589
g14
I00
sg32
I00
sg64
I01
sg15
I00
sbsbsg505
g0
(g208
g2
Ntp590
Rp591
(dp592
g14
I00
sg32
I00
sg15
I00
sg541
g0
(g66
g2
Ntp593
Rp594
(dp595
g14
I00
sg32
I00
sg64
I1
sg15
I00
sbsg457
g0
(g66
g2
Ntp596
Rp597
(dp598
g14
I00
sg32
I00
sg64
I10000000
sg15
I00
sbsg11
(lp599
g541
ag470
ag457
asg470
g0
(g60
g2
Ntp600
Rp601
(dp602
g14
I00
sg32
I00
sg64
I01
sg15
I00
sbsbsg11
(lp603
g569
ag534
ag504
ag414
ag485
ag517
ag462
ag505
ag470
asg517
g0
(g74
g2
Ntp604
Rp605
(dp606
g14
I00
sg32
I00
sg64
g569
sg15
I00
sbsbsbsS'_Process__services'
p607
(dp608
g375
g378
sS'DQMStore'
p609
g0
(g376
g2
Ntp610
Rp611
(dp612
g11
(lp613
sg14
I00
sg530
I01
sg15
I00
sg16
I14
sg17
g18
sg35
g609
sbssg609
g611
sS'HcalTimeSlewEP'
p614
g0
(g238
g2
Ntp615
Rp616
(dp617
g11
(lp618
S'timeSlewParametersM3'
p619
aS'timeSlewParametersM2'
p620
ag178
asg14
I00
sg619
g0
(g206
g20
(lp621
g0
(g208
g2
Ntp622
Rp623
(dp624
g14
I00
sg32
I01
sS'tspar2'
p625
g0
(g97
g2
Ntp626
Rp627
(dp628
g14
I00
sg32
I01
sg64
F0.0
sg15
I00
sbsg15
I00
sS'tspar0'
p629
g0
(g97
g2
Ntp630
Rp631
(dp632
g14
I00
sg32
I01
sg64
F12.2999
sg15
I00
sbsS'tspar1'
p633
g0
(g97
g2
Ntp634
Rp635
(dp636
g14
I00
sg32
I01
sg64
F-2.19142
sg15
I00
sbsS'tspar1_siPM'
p637
g0
(g97
g2
Ntp638
Rp639
(dp640
g14
I00
sg32
I01
sg64
F0.0
sg15
I00
sbsS'cap'
p641
g0
(g97
g2
Ntp642
Rp643
(dp644
g14
I00
sg32
I01
sg64
F6.0
sg15
I00
sbsS'tspar0_siPM'
p645
g0
(g97
g2
Ntp646
Rp647
(dp648
g14
I00
sg32
I01
sg64
F0.0
sg15
I00
sbsg11
(lp649
g625
ag629
ag633
ag637
ag641
ag645
aS'tspar2_siPM'
p650
asg650
g0
(g97
g2
Ntp651
Rp652
(dp653
g14
I00
sg32
I01
sg64
F0.0
sg15
I00
sbsbag0
(g208
g2
Ntp654
Rp655
(dp656
g14
I00
sg32
I01
sg625
g0
(g97
g2
Ntp657
Rp658
(dp659
g14
I00
sg32
I01
sg64
F32.0
sg15
I00
sbsg15
I00
sg629
g0
(g97
g2
Ntp660
Rp661
(dp662
g14
I00
sg32
I01
sg64
F15.5
sg15
I00
sbsg633
g0
(g97
g2
Ntp663
Rp664
(dp665
g14
I00
sg32
I01
sg64
F-3.2
sg15
I00
sbsg637
g0
(g97
g2
Ntp666
Rp667
(dp668
g14
I00
sg32
I01
sg64
F0.0
sg15
I00
sbsg641
g0
(g97
g2
Ntp669
Rp670
(dp671
g14
I00
sg32
I01
sg64
F6.0
sg15
I00
sbsg645
g0
(g97
g2
Ntp672
Rp673
(dp674
g14
I00
sg32
I01
sg64
F0.0
sg15
I00
sbsg11
(lp675
g625
ag629
ag633
ag637
ag641
ag645
ag650
asg650
g0
(g97
g2
Ntp676
Rp677
(dp678
g14
I00
sg32
I01
sg64
F0.0
sg15
I00
sbsbag0
(g208
g2
Ntp679
Rp680
(dp681
g14
I00
sg32
I01
sg625
g0
(g97
g2
Ntp682
Rp683
(dp684
g14
I00
sg32
I01
sg64
F0.0
sg15
I00
sbsg15
I00
sg629
g0
(g97
g2
Ntp685
Rp686
(dp687
g14
I00
sg32
I01
sg64
F12.2999
sg15
I00
sbsg633
g0
(g97
g2
Ntp688
Rp689
(dp690
g14
I00
sg32
I01
sg64
F-2.19142
sg15
I00
sbsg637
g0
(g97
g2
Ntp691
Rp692
(dp693
g14
I00
sg32
I01
sg64
F0.0
sg15
I00
sbsg641
g0
(g97
g2
Ntp694
Rp695
(dp696
g14
I00
sg32
I01
sg64
F6.0
sg15
I00
sbsg645
g0
(g97
g2
Ntp697
Rp698
(dp699
g14
I00
sg32
I01
sg64
F0.0
sg15
I00
sbsg11
(lp700
g625
ag629
ag633
ag637
ag641
ag645
ag650
asg650
g0
(g97
g2
Ntp701
Rp702
(dp703
g14
I00
sg32
I01
sg64
F0.0
sg15
I00
sbsbag0
(g208
g2
Ntp704
Rp705
(dp706
g14
I00
sg32
I01
sg625
g0
(g97
g2
Ntp707
Rp708
(dp709
g14
I00
sg32
I01
sg64
F0.0
sg15
I00
sbsg15
I00
sg629
g0
(g97
g2
Ntp710
Rp711
(dp712
g14
I00
sg32
I01
sg64
F12.2999
sg15
I00
sbsg633
g0
(g97
g2
Ntp713
Rp714
(dp715
g14
I00
sg32
I01
sg64
F-2.19142
sg15
I00
sbsg637
g0
(g97
g2
Ntp716
Rp717
(dp718
g14
I00
sg32
I01
sg64
F0.0
sg15
I00
sbsg641
g0
(g97
g2
Ntp719
Rp720
(dp721
g14
I00
sg32
I01
sg64
F6.0
sg15
I00
sbsg645
g0
(g97
g2
Ntp722
Rp723
(dp724
g14
I00
sg32
I01
sg64
F0.0
sg15
I00
sbsg11
(lp725
g625
ag629
ag633
ag637
ag641
ag645
ag650
asg650
g0
(g97
g2
Ntp726
Rp727
(dp728
g14
I00
sg32
I01
sg64
F0.0
sg15
I00
sbsbatp729
Rp730
(dp731
g14
I00
sg32
I01
sg15
I00
sg33
I1
sbsg620
g0
(g206
g20
(lp732
g0
(g208
g2
Ntp733
Rp734
(dp735
g14
I00
sg32
I01
sg15
I00
sS'slope'
p736
g0
(g97
g2
Ntp737
Rp738
(dp739
g14
I00
sg32
I01
sg64
F-3.178648
sg15
I00
sbsS'tmax'
p740
g0
(g97
g2
Ntp741
Rp742
(dp743
g14
I00
sg32
I01
sg64
F16.0
sg15
I00
sbsS'tzero'
p744
g0
(g97
g2
Ntp745
Rp746
(dp747
g14
I00
sg32
I01
sg64
F23.960177
sg15
I00
sbsg11
(lp748
g736
ag740
ag744
asbag0
(g208
g2
Ntp749
Rp750
(dp751
g14
I00
sg32
I01
sg15
I00
sg736
g0
(g97
g2
Ntp752
Rp753
(dp754
g14
I00
sg32
I01
sg64
F-1.5610227
sg15
I00
sbsg740
g0
(g97
g2
Ntp755
Rp756
(dp757
g14
I00
sg32
I01
sg64
F10.0
sg15
I00
sbsg744
g0
(g97
g2
Ntp758
Rp759
(dp760
g14
I00
sg32
I01
sg64
F11.977461
sg15
I00
sbsg11
(lp761
g736
ag740
ag744
asbag0
(g208
g2
Ntp762
Rp763
(dp764
g14
I00
sg32
I01
sg15
I00
sg736
g0
(g97
g2
Ntp765
Rp766
(dp767
g14
I00
sg32
I01
sg64
F-1.075824
sg15
I00
sbsg740
g0
(g97
g2
Ntp768
Rp769
(dp770
g14
I00
sg32
I01
sg64
F6.25
sg15
I00
sbsg744
g0
(g97
g2
Ntp771
Rp772
(dp773
g14
I00
sg32
I01
sg64
F9.109694
sg15
I00
sbsg11
(lp774
g736
ag740
ag744
asbatp775
Rp776
(dp777
g14
I00
sg32
I01
sg15
I00
sg33
I1
sbsg15
I00
sg16
I23
sg17
S'/cvmfs/cms.cern.ch/slc7_amd64_gcc820/cms/cmssw-patch/CMSSW_10_6_20_patch1/python/CalibCalorimetry/HcalPlugins/HcalTimeSlew_cff.py'
p778
sg178
g0
(g74
g2
Ntp779
Rp780
(dp781
g14
I00
sg32
I01
sg64
S'HBHE'
p782
sg15
I00
sbsg34
g614
sg35
g614
sbsS'CastorGeometryFromDBEP'
p783
g0
(g7
g2
Ntp784
Rp785
(dp786
g11
(lp787
g189
asg14
I00
sg15
I00
sg16
I56
sg17
g18
sg34
g783
sg189
g0
(g60
g2
Ntp788
Rp789
(dp790
g14
I00
sg32
I01
sg64
I00
sg15
I00
sbsg35
g783
sbsS'HFRecalParameterBlock'
p791
g0
(g208
g2
Ntp792
Rp793
(dp794
g14
I00
sg32
I01
sg15
I00
sS'HFdepthTwoParameterA'
p795
g0
(cFWCore.ParameterSet.Types
vdouble
p796
g20
(lp797
F0.002861
aF0.004168
aF0.0064
aF0.008388
aF0.011601
aF0.014425
aF0.018633
aF0.023232
aF0.028274
aF0.035447
aF0.051579
aF0.086593
atp798
Rp799
(dp800
g14
I00
sg32
I01
sg15
I00
sbsS'HFdepthOneParameterA'
p801
g0
(g796
g20
(lp802
F0.004123
aF0.00602
aF0.008201
aF0.010489
aF0.013379
aF0.016997
aF0.021464
aF0.027371
aF0.034195
aF0.044807
aF0.058939
aF0.125497
atp803
Rp804
(dp805
g14
I00
sg32
I01
sg15
I00
sbsS'HFdepthOneParameterB'
p806
g0
(g796
g20
(lp807
F-4e-06
aF-2e-06
aF0.0
aF4e-06
aF1.5e-05
aF2.6e-05
aF6.3e-05
aF8.4e-05
aF0.00016
aF0.000107
aF0.000425
aF0.000209
atp808
Rp809
(dp810
g14
I00
sg32
I01
sg15
I00
sbsS'HFdepthTwoParameterB'
p811
g0
(g796
g20
(lp812
F-2e-06
aF-0.0
aF-7e-06
aF-6e-06
aF-2e-06
aF1e-06
aF1.9e-05
aF3.1e-05
aF6.7e-05
aF1.2e-05
aF0.000157
aF-3e-06
atp813
Rp814
(dp815
g14
I00
sg32
I01
sg15
I00
sbsg11
(lp816
g801
ag806
ag811
ag795
asg34
g791
sbsg144
g146
sS'eegeom'
p817
g0
(g238
g2
Ntp818
Rp819
(dp820
g11
(lp821
S'iovIsRunNotTime'
p822
aS'recordName'
p823
aS'firstValid'
p824
asg14
I00
sg15
I00
sg16
I6
sg823
g0
(g74
g2
Ntp825
Rp826
(dp827
g14
I00
sg32
I01
sg64
S'EcalMappingRcd'
p828
sg15
I00
sbsg17
S'/cvmfs/cms.cern.ch/slc7_amd64_gcc820/cms/cmssw-patch/CMSSW_10_6_20_patch1/python/Geometry/EcalMapping/EcalMappingRecord_cfi.py'
p829
sg824
g0
(cFWCore.ParameterSet.Types
vuint32
p830
g20
(lp831
I1
atp832
Rp833
(dp834
g14
I00
sg32
I01
sg15
I00
sbsg34
g817
sg822
g0
(g60
g2
Ntp835
Rp836
(dp837
g14
I00
sg32
I01
sg64
I01
sg15
I00
sbsg35
S'EmptyESSource'
p838
sbsg355
g342
sS'hcalTopologyIdeal'
p839
g0
(g7
g2
Ntp840
Rp841
(dp842
g11
(lp843
S'MergePosition'
p844
aS'Exclude'
p845
ag178
asg14
I00
sg178
g0
(g74
g2
Ntp846
Rp847
(dp848
g14
I00
sg32
I01
sg64
g78
sg15
I00
sbsg15
I00
sg16
I56
sg844
g0
(g60
g2
Ntp849
Rp850
(dp851
g14
I00
sg32
I00
sg64
I00
sg15
I00
sbsg17
g18
sg34
g839
sg845
g0
(g74
g2
Ntp852
Rp853
(dp854
g14
I00
sg32
I00
sg64
g78
sg15
I00
sbsg35
S'HcalTopologyIdealEP'
p855
sbsS'_Process__vpsets'
p856
(dp857
sS'EcalTrigTowerConstituentsMapBuilder'
p858
g0
(g7
g2
Ntp859
Rp860
(dp861
g11
(lp862
S'MapFile'
p863
asg14
I00
sg15
I00
sg863
g0
(g74
g2
Ntp864
Rp865
(dp866
g14
I00
sg32
I00
sg64
S'Geometry/EcalMapping/data/EndCap_TTMap.txt'
p867
sg15
I00
sbsg17
g18
sg16
I56
sg34
g858
sg35
g858
sbsS'siStripBackPlaneCorrectionDepESProducer'
p868
g0
(g7
g2
Ntp869
Rp870
(dp871
g11
(lp872
S'LatencyRecord'
p873
aS'BackPlaneCorrectionDeconvMode'
p874
aS'BackPlaneCorrectionPeakMode'
p875
asg14
I00
sg15
I00
sg16
I56
sg17
g18
sg873
g0
(g208
g2
Ntp876
Rp877
(dp878
g14
I00
sg32
I01
sg15
I00
sS'label'
p879
g0
(g74
g2
Ntp880
Rp881
(dp882
g14
I00
sg32
I00
sg64
g78
sg15
I00
sbsg212
g0
(g74
g2
Ntp883
Rp884
(dp885
g14
I00
sg32
I01
sg64
S'SiStripLatencyRcd'
p886
sg15
I00
sbsg11
(lp887
g212
ag879
asbsg875
g0
(g208
g2
Ntp888
Rp889
(dp890
g14
I00
sg32
I01
sg15
I00
sg879
g0
(g74
g2
Ntp891
Rp892
(dp893
g14
I00
sg32
I00
sg64
S'peak'
p894
sg15
I00
sbsg212
g0
(g74
g2
Ntp895
Rp896
(dp897
g14
I00
sg32
I01
sg64
S'SiStripBackPlaneCorrectionRcd'
p898
sg15
I00
sbsg11
(lp899
g212
ag879
asbsg34
g868
sg874
g0
(g208
g2
Ntp900
Rp901
(dp902
g14
I00
sg32
I01
sg15
I00
sg879
g0
(g74
g2
Ntp903
Rp904
(dp905
g14
I00
sg32
I00
sg64
S'deconvolution'
p906
sg15
I00
sbsg212
g0
(g74
g2
Ntp907
Rp908
(dp909
g14
I00
sg32
I01
sg64
g898
sg15
I00
sbsg11
(lp910
g212
ag879
asbsg35
S'SiStripBackPlaneCorrectionDepESProducer'
p911
sbsS'_Process__switchproducers'
p912
(dp913
sS'_Process__esprefers'
p914
(dp915
S'es_prefer_hcalHardcode'
p916
g0
(cFWCore.ParameterSet.Modules
ESPrefer
p917
g2
Ntp918
Rp919
(dp920
g11
(lp921
sg14
I00
sg15
I00
sS'_targetLabel'
p922
S'es_hardcode'
p923
sg16
I92
sg17
g18
sg34
g916
sg35
S'HcalHardcodeCalibrations'
p924
sbssS'_Process__isStrict'
p925
I00
sS'_Process__outputmodules'
p926
(dp927
sS'_Process__analyzers'
p928
(dp929
g127
g84
sg355
g342
ssS'idealForDigiTrackerGeometry'
p930
g0
(g7
g2
Ntp931
Rp932
(dp933
g11
(lp934
g178
aS'fromDDD'
p935
ag189
aS'alignmentsLabel'
p936
asg14
I00
sg178
g0
(g74
g2
Ntp937
Rp938
(dp939
g14
I00
sg32
I01
sg64
S'idealForDigi'
p940
sg15
I01
sbsg15
I01
sg936
g0
(g74
g2
Ntp941
Rp942
(dp943
g14
I00
sg32
I01
sg64
S'fakeForIdeal'
p944
sg15
I01
sbsg17
S'/cvmfs/cms.cern.ch/slc7_amd64_gcc820/cms/cmssw-patch/CMSSW_10_6_20_patch1/python/Geometry/TrackerGeometryBuilder/idealForDigiTrackerGeometryDB_cff.py'
p945
sg16
I8
sg34
g930
sg935
g0
(g60
g2
Ntp946
Rp947
(dp948
g14
I00
sg32
I01
sg64
I00
sg15
I00
sbsg189
g0
(g60
g2
Ntp949
Rp950
(dp951
g14
I00
sg32
I01
sg64
I00
sg15
I01
sbsg35
S'TrackerDigiGeometryESModule'
p952
sbsS'_Process__looper'
p953
NsS'_Process__tasks'
p954
(dp955
sS'_Process__paths'
p956
g0
(g324
g325
(dp957
g332
g335
stp958
Rp959
(dp960
g330
(lp961
g332
asbsS'options'
p962
g0
(g208
g2
Ntp963
Rp964
(dp965
g14
I00
sg32
I00
sg15
I00
sS'wantSummary'
p966
g0
(g60
g2
Ntp967
Rp968
(dp969
g14
I00
sg32
I00
sg64
I01
sg15
I00
sbsg11
(lp970
g966
asg34
g962
sbsS'DTGeometryESModule'
p971
g0
(g7
g2
Ntp972
Rp973
(dp974
g11
(lp975
g178
ag935
ag189
ag936
asg14
I00
sg178
g0
(g74
g2
Ntp976
Rp977
(dp978
g14
I00
sg32
I01
sg64
g78
sg15
I00
sbsg15
I00
sg936
g0
(g74
g2
Ntp979
Rp980
(dp981
g14
I00
sg32
I01
sg64
g78
sg15
I00
sbsg17
g18
sg16
I56
sg34
g971
sg935
g0
(g60
g2
Ntp982
Rp983
(dp984
g14
I00
sg32
I01
sg64
I00
sg15
I00
sbsg189
g0
(g60
g2
Ntp985
Rp986
(dp987
g14
I00
sg32
I01
sg64
I01
sg15
I00
sbsg35
g971
sbsS'VolumeBasedMagneticFieldESProducer'
p988
g0
(g7
g2
Ntp989
Rp990
(dp991
g11
(lp992
S'valueOverride'
p993
aS'debugBuilder'
p994
ag879
asg14
I00
sg993
g0
(g66
g2
Ntp995
Rp996
(dp997
g14
I00
sg32
I01
sg64
I-1
sg15
I00
sbsg16
I56
sg17
g18
sg879
g0
(g74
g2
Ntp998
Rp999
(dp1000
g14
I00
sg32
I00
sg64
g78
sg15
I00
sbsg994
g0
(g60
g2
Ntp1001
Rp1002
(dp1003
g14
I00
sg32
I00
sg64
I00
sg15
I00
sbsg34
g988
sg35
S'VolumeBasedMagneticFieldESProducerFromDB'
p1004
sg15
I00
sbsS'CaloTopologyBuilder'
p1005
g0
(g7
g2
Ntp1006
Rp1007
(dp1008
g11
(lp1009
sg14
I00
sg15
I00
sg16
I56
sg17
g18
sg34
g1005
sg35
g1005
sbsS'SiStripRecHitMatcherESProducer'
p1010
g0
(g7
g2
Ntp1011
Rp1012
(dp1013
g11
(lp1014
S'PreFilter'
p1015
ag318
aS'NSigmaInside'
p1016
asg14
I00
sg15
I00
sg17
g18
sg318
g0
(g74
g2
Ntp1017
Rp1018
(dp1019
g14
I00
sg32
I01
sg64
S'StandardMatcher'
p1020
sg15
I00
sbsg1015
g0
(g60
g2
Ntp1021
Rp1022
(dp1023
g14
I00
sg32
I01
sg64
I00
sg15
I00
sbsg16
I56
sg1016
g0
(g97
g2
Ntp1024
Rp1025
(dp1026
g14
I00
sg32
I01
sg64
F3.0
sg15
I00
sbsg34
g1010
sg35
g1010
sbsS'_Process__psets'
p1027
(dp1028
S'maxEvents'
p1029
g0
(g208
g2
Ntp1030
Rp1031
(dp1032
g14
I00
sg32
I00
sg15
I00
sg11
(lp1033
S'input'
p1034
asg34
g1029
sg1034
g0
(g66
g2
Ntp1035
Rp1036
(dp1037
g14
I00
sg32
I00
sg64
I-1
sg15
I00
sbsbsg791
g793
sg962
g964
ssS'_Process__essources'
p1038
(dp1039
g817
g819
sg923
g0
(g238
g2
Ntp1040
Rp1041
(dp1042
g14
I00
sg16
I172
sS'useHEUpgrade'
p1043
g0
(g60
g2
Ntp1044
Rp1045
(dp1046
g14
I00
sg32
I01
sg64
I00
sg15
I00
sbsS'HBRecalibration'
p1047
g0
(g60
g2
Ntp1048
Rp1049
(dp1050
g14
I00
sg32
I01
sg64
I00
sg15
I00
sbsS'useLayer0Weight'
p1051
g0
(g60
g2
Ntp1052
Rp1053
(dp1054
g14
I00
sg32
I01
sg64
I00
sg15
I00
sbsS'HEmeanenergies'
p1055
g0
(cFWCore.ParameterSet.Types
FileInPath
p1056
g2
Ntp1057
Rp1058
(dp1059
g14
I00
sg32
I01
sg64
S'CalibCalorimetry/HcalPlugins/data/meanenergiesHE.txt'
p1060
sg15
I00
sbsg791
g793
sS'heUpgrade'
p1061
g0
(g208
g2
Ntp1062
Rp1063
(dp1064
g14
I00
sg32
I01
sS'qieType'
p1065
g0
(g66
g2
Ntp1066
Rp1067
(dp1068
g14
I00
sg32
I01
sg64
I2
sg15
I00
sbsg15
I00
sS'pedestalWidth'
p1069
g0
(g97
g2
Ntp1070
Rp1071
(dp1072
g14
I00
sg32
I01
sg64
F1.5
sg15
I00
sbsS'recoShape'
p1073
g0
(g66
g2
Ntp1074
Rp1075
(dp1076
g14
I00
sg32
I01
sg64
I206
sg15
I00
sbsS'zsThreshold'
p1077
g0
(g66
g2
Ntp1078
Rp1079
(dp1080
g14
I00
sg32
I01
sg64
I16
sg15
I00
sbsS'darkCurrent'
p1081
g0
(g796
g20
(lp1082
F0.01
aF0.015
atp1083
Rp1084
(dp1085
g14
I00
sg32
I01
sg15
I00
sbsS'qieOffset'
p1086
g0
(g796
g20
(lp1087
F0.0
aF0.0
aF0.0
aF0.0
atp1088
Rp1089
(dp1090
g14
I00
sg32
I01
sg15
I00
sbsS'qieSlope'
p1091
g0
(g796
g20
(lp1092
F0.05376
aF0.05376
aF0.05376
aF0.05376
atp1093
Rp1094
(dp1095
g14
I00
sg32
I01
sg15
I00
sbsS'radiationDamage'
p1096
g0
(g208
g2
Ntp1097
Rp1098
(dp1099
g14
I00
sg32
I01
sS'temperatureNew'
p1100
g0
(g97
g2
Ntp1101
Rp1102
(dp1103
g14
I00
sg32
I01
sg64
I5
sg15
I00
sbsg15
I00
sS'depVsNeutrons'
p1104
g0
(g796
g20
(lp1105
F5.543e-10
aF8.012e-10
atp1106
Rp1107
(dp1108
g14
I00
sg32
I01
sg15
I00
sbsS'temperatureBase'
p1109
g0
(g97
g2
Ntp1110
Rp1111
(dp1112
g14
I00
sg32
I01
sg64
I20
sg15
I00
sbsS'depVsTemp'
p1113
g0
(g97
g2
Ntp1114
Rp1115
(dp1116
g14
I00
sg32
I01
sg64
F0.0631
sg15
I00
sbsS'intlumiOffset'
p1117
g0
(g97
g2
Ntp1118
Rp1119
(dp1120
g14
I00
sg32
I01
sg64
I75
sg15
I00
sbsg11
(lp1121
g1100
ag1104
ag1109
ag1113
ag1117
aS'intlumiToNeutrons'
p1122
asg1122
g0
(g97
g2
Ntp1123
Rp1124
(dp1125
g14
I00
sg32
I01
sg64
F29200000.0
sg15
I00
sbsbsS'doRadiationDamage'
p1126
g0
(g60
g2
Ntp1127
Rp1128
(dp1129
g14
I00
sg32
I01
sg64
I01
sg15
I00
sbsg11
(lp1130
g1065
ag1069
ag1073
ag1077
aS'photoelectronsToAnalog'
p1131
ag1086
ag1091
ag1096
ag1126
ag1081
aS'pedestal'
p1132
aS'mcShape'
p1133
aS'gainWidth'
p1134
aS'gain'
p1135
asg1131
g0
(g97
g2
Ntp1136
Rp1137
(dp1138
g14
I00
sg32
I01
sg64
F40.0
sg15
I00
sbsg1132
g0
(g97
g2
Ntp1139
Rp1140
(dp1141
g14
I00
sg32
I01
sg64
F17.3
sg15
I00
sbsg1133
g0
(g66
g2
Ntp1142
Rp1143
(dp1144
g14
I00
sg32
I01
sg64
I206
sg15
I00
sbsg1134
g0
(g796
g20
(lp1145
I0
atp1146
Rp1147
(dp1148
g14
I00
sg32
I01
sg15
I00
sbsg1135
g0
(g796
g20
(lp1149
F0.0006252
atp1150
Rp1151
(dp1152
g14
I00
sg32
I01
sg15
I00
sbsbsg11
(lp1153
g249
ag1047
ag1051
ag1055
ag791
ag1061
aS'useIeta18depth1'
p1154
aS'killHE'
p1155
aS'useHBUpgrade'
p1156
aS'hbUpgrade'
p1157
aS'testHEPlan1'
p1158
aS'iLumi'
p1159
aS'testHFQIE10'
p1160
aS'HBmeanenergies'
p1161
ag1043
aS'GainWidthsForTrigPrims'
p1162
aS'HBreCalibCutoff'
p1163
aS'HFRecalibration'
p1164
aS'ho'
p1165
aS'hb'
p1166
aS'hf'
p1167
aS'he'
p1168
aS'HERecalibration'
p1169
aS'useHFUpgrade'
p1170
aS'HEreCalibCutoff'
p1171
aS'SiPMCharacteristics'
p1172
aS'useHOUpgrade'
p1173
aS'hfUpgrade'
p1174
asg17
S'/cvmfs/cms.cern.ch/slc7_amd64_gcc820/cms/cmssw-patch/CMSSW_10_6_20_patch1/python/CalibCalorimetry/HcalPlugins/Hcal_Conditions_forGlobalTag_cff.py'
p1175
sg1154
g0
(g60
g2
Ntp1176
Rp1177
(dp1178
g14
I00
sg32
I01
sg64
I01
sg15
I00
sbsg1155
g0
(g60
g2
Ntp1179
Rp1180
(dp1181
g14
I00
sg32
I01
sg64
I00
sg15
I00
sbsg1156
g0
(g60
g2
Ntp1182
Rp1183
(dp1184
g14
I00
sg32
I01
sg64
I00
sg15
I00
sbsg1157
g0
(g208
g2
Ntp1185
Rp1186
(dp1187
g14
I00
sg32
I01
sg1065
g0
(g66
g2
Ntp1188
Rp1189
(dp1190
g14
I00
sg32
I01
sg64
I2
sg15
I00
sbsg15
I00
sg1069
g0
(g97
g2
Ntp1191
Rp1192
(dp1193
g14
I00
sg32
I01
sg64
F1.5
sg15
I00
sbsg1073
g0
(g66
g2
Ntp1194
Rp1195
(dp1196
g14
I00
sg32
I01
sg64
I206
sg15
I00
sbsg1077
g0
(g66
g2
Ntp1197
Rp1198
(dp1199
g14
I00
sg32
I01
sg64
I16
sg15
I00
sbsg1081
g0
(g796
g20
(lp1200
F0.01
aF0.015
atp1201
Rp1202
(dp1203
g14
I00
sg32
I01
sg15
I00
sbsg1086
g0
(g796
g20
(lp1204
F0.0
aF0.0
aF0.0
aF0.0
atp1205
Rp1206
(dp1207
g14
I00
sg32
I01
sg15
I00
sbsg1091
g0
(g796
g20
(lp1208
F0.05376
aF0.05376
aF0.05376
aF0.05376
atp1209
Rp1210
(dp1211
g14
I00
sg32
I01
sg15
I00
sbsg1096
g0
(g208
g2
Ntp1212
Rp1213
(dp1214
g14
I00
sg32
I01
sg1100
g0
(g97
g2
Ntp1215
Rp1216
(dp1217
g14
I00
sg32
I01
sg64
I-5
sg15
I00
sbsg15
I00
sg1104
g0
(g796
g20
(lp1218
F5.543e-10
aF8.012e-10
atp1219
Rp1220
(dp1221
g14
I00
sg32
I01
sg15
I00
sbsg1109
g0
(g97
g2
Ntp1222
Rp1223
(dp1224
g14
I00
sg32
I01
sg64
I20
sg15
I00
sbsg1113
g0
(g97
g2
Ntp1225
Rp1226
(dp1227
g14
I00
sg32
I01
sg64
F0.0631
sg15
I00
sbsg1117
g0
(g97
g2
Ntp1228
Rp1229
(dp1230
g14
I00
sg32
I01
sg64
I150
sg15
I00
sbsg11
(lp1231
g1100
ag1104
ag1109
ag1113
ag1117
ag1122
asg1122
g0
(g97
g2
Ntp1232
Rp1233
(dp1234
g14
I00
sg32
I01
sg64
F367000000.0
sg15
I00
sbsbsg1126
g0
(g60
g2
Ntp1235
Rp1236
(dp1237
g14
I00
sg32
I01
sg64
I01
sg15
I00
sbsg11
(lp1238
g1065
ag1069
ag1073
ag1077
ag1131
ag1086
ag1091
ag1096
ag1126
ag1081
ag1132
ag1133
ag1134
ag1135
asg1131
g0
(g97
g2
Ntp1239
Rp1240
(dp1241
g14
I00
sg32
I01
sg64
F40.0
sg15
I00
sbsg1132
g0
(g97
g2
Ntp1242
Rp1243
(dp1244
g14
I00
sg32
I01
sg64
F17.3
sg15
I00
sbsg1133
g0
(g66
g2
Ntp1245
Rp1246
(dp1247
g14
I00
sg32
I01
sg64
I206
sg15
I00
sbsg1134
g0
(g796
g20
(lp1248
I0
atp1249
Rp1250
(dp1251
g14
I00
sg32
I01
sg15
I00
sbsg1135
g0
(g796
g20
(lp1252
F0.0006252
atp1253
Rp1254
(dp1255
g14
I00
sg32
I01
sg15
I00
sbsbsg35
g924
sg1158
g0
(g60
g2
Ntp1256
Rp1257
(dp1258
g14
I00
sg32
I01
sg64
I00
sg15
I00
sbsg1159
g0
(g97
g2
Ntp1259
Rp1260
(dp1261
g14
I00
sg32
I01
sg64
F-1.0
sg15
I00
sbsg1160
g0
(g60
g2
Ntp1262
Rp1263
(dp1264
g14
I00
sg32
I01
sg64
I00
sg15
I00
sbsg1161
g0
(g1056
g2
Ntp1265
Rp1266
(dp1267
g14
I00
sg32
I01
sg64
S'CalibCalorimetry/HcalPlugins/data/meanenergiesHB.txt'
p1268
sg15
I00
sbsg249
g0
(g19
g20
(lp1269
S'GainWidths'
p1270
atp1271
Rp1272
(dp1273
g14
I00
sg32
I00
sg15
I00
sg33
I1
sbsg1162
g0
(g60
g2
Ntp1274
Rp1275
(dp1276
g14
I00
sg32
I01
sg64
I00
sg15
I00
sbsg1163
g0
(g97
g2
Ntp1277
Rp1278
(dp1279
g14
I00
sg32
I01
sg64
F20.0
sg15
I00
sbsg1164
g0
(g60
g2
Ntp1280
Rp1281
(dp1282
g14
I00
sg32
I01
sg64
I00
sg15
I00
sbsg1165
g0
(g208
g2
Ntp1283
Rp1284
(dp1285
g14
I00
sg32
I01
sg1065
g0
(g66
g2
Ntp1286
Rp1287
(dp1288
g14
I00
sg32
I01
sg64
I0
sg15
I00
sbsg15
I00
sg1069
g0
(g97
g2
Ntp1289
Rp1290
(dp1291
g14
I00
sg32
I01
sg64
F0.6285
sg15
I00
sbsg1073
g0
(g66
g2
Ntp1292
Rp1293
(dp1294
g14
I00
sg32
I01
sg64
I201
sg15
I00
sbsg1077
g0
(g66
g2
Ntp1295
Rp1296
(dp1297
g14
I00
sg32
I01
sg64
I24
sg15
I00
sbsg1081
g0
(g796
g20
(lp1298
F0.0
atp1299
Rp1300
(dp1301
g14
I00
sg32
I01
sg15
I00
sbsg1086
g0
(g796
g20
(lp1302
F-0.44
aF1.4
aF7.1
aF38.5
atp1303
Rp1304
(dp1305
g14
I00
sg32
I01
sg15
I00
sbsg1091
g0
(g796
g20
(lp1306
F0.907
aF0.915
aF0.92
aF0.921
atp1307
Rp1308
(dp1309
g14
I00
sg32
I01
sg15
I00
sbsg1135
g0
(g796
g20
(lp1310
F0.006
aF0.0087
atp1311
Rp1312
(dp1313
g14
I00
sg32
I01
sg15
I00
sbsg1126
g0
(g60
g2
Ntp1314
Rp1315
(dp1316
g14
I00
sg32
I01
sg64
I00
sg15
I00
sbsg11
(lp1317
g1065
ag1069
ag1073
ag1077
ag1131
ag1086
ag1091
ag1135
ag1126
ag1081
ag1132
ag1133
ag1134
asg1131
g0
(g97
g2
Ntp1318
Rp1319
(dp1320
g14
I00
sg32
I01
sg64
F4.0
sg15
I00
sbsg1132
g0
(g97
g2
Ntp1321
Rp1322
(dp1323
g14
I00
sg32
I01
sg64
F12.06
sg15
I00
sbsg1133
g0
(g66
g2
Ntp1324
Rp1325
(dp1326
g14
I00
sg32
I01
sg64
I201
sg15
I00
sbsg1134
g0
(g796
g20
(lp1327
F0.0
aF0.0
atp1328
Rp1329
(dp1330
g14
I00
sg32
I01
sg15
I00
sbsbsg1166
g0
(g208
g2
Ntp1331
Rp1332
(dp1333
g14
I00
sg32
I01
sg1065
g0
(g66
g2
Ntp1334
Rp1335
(dp1336
g14
I00
sg32
I01
sg64
I0
sg15
I00
sbsg15
I00
sg1069
g0
(g97
g2
Ntp1337
Rp1338
(dp1339
g14
I00
sg32
I01
sg64
F0.809
sg15
I00
sbsg1073
g0
(g66
g2
Ntp1340
Rp1341
(dp1342
g14
I00
sg32
I01
sg64
I105
sg15
I00
sbsg1077
g0
(g66
g2
Ntp1343
Rp1344
(dp1345
g14
I00
sg32
I01
sg64
I8
sg15
I00
sbsg1081
g0
(g796
g20
(lp1346
F0.0
atp1347
Rp1348
(dp1349
g14
I00
sg32
I01
sg15
I00
sbsg1086
g0
(g796
g20
(lp1350
F-0.49
aF1.8
aF7.2
aF37.9
atp1351
Rp1352
(dp1353
g14
I00
sg32
I01
sg15
I00
sbsg1091
g0
(g796
g20
(lp1354
F0.912
aF0.917
aF0.922
aF0.923
atp1355
Rp1356
(dp1357
g14
I00
sg32
I01
sg15
I00
sbsg1135
g0
(g796
g20
(lp1358
F0.19
atp1359
Rp1360
(dp1361
g14
I00
sg32
I01
sg15
I00
sbsg1126
g0
(g60
g2
Ntp1362
Rp1363
(dp1364
g14
I00
sg32
I01
sg64
I00
sg15
I00
sbsg11
(lp1365
g1065
ag1069
ag1073
ag1077
ag1131
ag1086
ag1091
ag1135
ag1126
ag1081
ag1132
ag1133
ag1134
asg1131
g0
(g97
g2
Ntp1366
Rp1367
(dp1368
g14
I00
sg32
I01
sg64
F0.3305
sg15
I00
sbsg1132
g0
(g97
g2
Ntp1369
Rp1370
(dp1371
g14
I00
sg32
I01
sg64
F3.285
sg15
I00
sbsg1133
g0
(g66
g2
Ntp1372
Rp1373
(dp1374
g14
I00
sg32
I01
sg64
I125
sg15
I00
sbsg1134
g0
(g796
g20
(lp1375
F0.0
atp1376
Rp1377
(dp1378
g14
I00
sg32
I01
sg15
I00
sbsbsg1167
g0
(g208
g2
Ntp1379
Rp1380
(dp1381
g14
I00
sg32
I01
sg1065
g0
(g66
g2
Ntp1382
Rp1383
(dp1384
g14
I00
sg32
I01
sg64
I0
sg15
I00
sbsg15
I00
sg1069
g0
(g97
g2
Ntp1385
Rp1386
(dp1387
g14
I00
sg32
I01
sg64
F2.516
sg15
I00
sbsg1073
g0
(g66
g2
Ntp1388
Rp1389
(dp1390
g14
I00
sg32
I01
sg64
I301
sg15
I00
sbsg1077
g0
(g66
g2
Ntp1391
Rp1392
(dp1393
g14
I00
sg32
I01
sg64
I-9999
sg15
I00
sbsg1081
g0
(g796
g20
(lp1394
F0.0
atp1395
Rp1396
(dp1397
g14
I00
sg32
I01
sg15
I00
sbsg1086
g0
(g796
g20
(lp1398
F-0.87
aF1.4
aF7.8
aF-29.6
atp1399
Rp1400
(dp1401
g14
I00
sg32
I01
sg15
I00
sbsg1091
g0
(g796
g20
(lp1402
F0.359
aF0.358
aF0.36
aF0.367
atp1403
Rp1404
(dp1405
g14
I00
sg32
I01
sg15
I00
sbsg1135
g0
(g796
g20
(lp1406
F0.14
aF0.135
atp1407
Rp1408
(dp1409
g14
I00
sg32
I01
sg15
I00
sbsg1126
g0
(g60
g2
Ntp1410
Rp1411
(dp1412
g14
I00
sg32
I01
sg64
I00
sg15
I00
sbsg11
(lp1413
g1065
ag1069
ag1073
ag1077
ag1131
ag1086
ag1091
ag1135
ag1126
ag1081
ag1132
ag1133
ag1134
asg1131
g0
(g97
g2
Ntp1414
Rp1415
(dp1416
g14
I00
sg32
I01
sg64
F0.0
sg15
I00
sbsg1132
g0
(g97
g2
Ntp1417
Rp1418
(dp1419
g14
I00
sg32
I01
sg64
F9.354
sg15
I00
sbsg1133
g0
(g66
g2
Ntp1420
Rp1421
(dp1422
g14
I00
sg32
I01
sg64
I301
sg15
I00
sbsg1134
g0
(g796
g20
(lp1423
F0.0
aF0.0
atp1424
Rp1425
(dp1426
g14
I00
sg32
I01
sg15
I00
sbsbsg1168
g0
(g208
g2
Ntp1427
Rp1428
(dp1429
g14
I00
sg32
I01
sg1065
g0
(g66
g2
Ntp1430
Rp1431
(dp1432
g14
I00
sg32
I01
sg64
I0
sg15
I00
sbsg15
I00
sg1069
g0
(g97
g2
Ntp1433
Rp1434
(dp1435
g14
I00
sg32
I01
sg64
F0.9698
sg15
I00
sbsg1073
g0
(g66
g2
Ntp1436
Rp1437
(dp1438
g14
I00
sg32
I01
sg64
I105
sg15
I00
sbsg1077
g0
(g66
g2
Ntp1439
Rp1440
(dp1441
g14
I00
sg32
I01
sg64
I9
sg15
I00
sbsg1081
g0
(g796
g20
(lp1442
F0.0
atp1443
Rp1444
(dp1445
g14
I00
sg32
I01
sg15
I00
sbsg1086
g0
(g796
g20
(lp1446
F-0.38
aF2.0
aF7.6
aF39.6
atp1447
Rp1448
(dp1449
g14
I00
sg32
I01
sg15
I00
sbsg1091
g0
(g796
g20
(lp1450
F0.912
aF0.916
aF0.92
aF0.922
atp1451
Rp1452
(dp1453
g14
I00
sg32
I01
sg15
I00
sbsg1135
g0
(g796
g20
(lp1454
F0.23
atp1455
Rp1456
(dp1457
g14
I00
sg32
I01
sg15
I00
sbsg1126
g0
(g60
g2
Ntp1458
Rp1459
(dp1460
g14
I00
sg32
I01
sg64
I00
sg15
I00
sbsg11
(lp1461
g1065
ag1069
ag1073
ag1077
ag1131
ag1086
ag1091
ag1135
ag1126
ag1081
ag1132
ag1133
ag1134
asg1131
g0
(g97
g2
Ntp1462
Rp1463
(dp1464
g14
I00
sg32
I01
sg64
F0.3305
sg15
I00
sbsg1132
g0
(g97
g2
Ntp1465
Rp1466
(dp1467
g14
I00
sg32
I01
sg64
F3.163
sg15
I00
sbsg1133
g0
(g66
g2
Ntp1468
Rp1469
(dp1470
g14
I00
sg32
I01
sg64
I125
sg15
I00
sbsg1134
g0
(g796
g20
(lp1471
I0
atp1472
Rp1473
(dp1474
g14
I00
sg32
I01
sg15
I00
sbsbsg15
I00
sg1169
g0
(g60
g2
Ntp1475
Rp1476
(dp1477
g14
I00
sg32
I01
sg64
I00
sg15
I00
sbsg1170
g0
(g60
g2
Ntp1478
Rp1479
(dp1480
g14
I00
sg32
I01
sg64
I00
sg15
I00
sbsg1171
g0
(g97
g2
Ntp1481
Rp1482
(dp1483
g14
I00
sg32
I01
sg64
F20.0
sg15
I00
sbsg1172
g0
(g206
g20
(lp1484
g0
(g208
g2
Ntp1485
Rp1486
(dp1487
g14
I00
sg32
I01
sg15
I00
sS'crosstalk'
p1488
g0
(g97
g2
Ntp1489
Rp1490
(dp1491
g14
I00
sg32
I01
sg64
F0.0
sg15
I00
sbsS'nonlin1'
p1492
g0
(g97
g2
Ntp1493
Rp1494
(dp1495
g14
I00
sg32
I01
sg64
F1.0
sg15
I00
sbsS'nonlin3'
p1496
g0
(g97
g2
Ntp1497
Rp1498
(dp1499
g14
I00
sg32
I01
sg64
F0.0
sg15
I00
sbsS'nonlin2'
p1500
g0
(g97
g2
Ntp1501
Rp1502
(dp1503
g14
I00
sg32
I01
sg64
F0.0
sg15
I00
sbsg11
(lp1504
g1492
ag1496
ag1500
aS'pixels'
p1505
ag1488
asg1505
g0
(g66
g2
Ntp1506
Rp1507
(dp1508
g14
I00
sg32
I01
sg64
I36000
sg15
I00
sbsbag0
(g208
g2
Ntp1509
Rp1510
(dp1511
g14
I00
sg32
I01
sg15
I00
sg1488
g0
(g97
g2
Ntp1512
Rp1513
(dp1514
g14
I00
sg32
I01
sg64
F0.0
sg15
I00
sbsg1492
g0
(g97
g2
Ntp1515
Rp1516
(dp1517
g14
I00
sg32
I01
sg64
F1.0
sg15
I00
sbsg1496
g0
(g97
g2
Ntp1518
Rp1519
(dp1520
g14
I00
sg32
I01
sg64
F0.0
sg15
I00
sbsg1500
g0
(g97
g2
Ntp1521
Rp1522
(dp1523
g14
I00
sg32
I01
sg64
F0.0
sg15
I00
sbsg11
(lp1524
g1492
ag1496
ag1500
ag1505
ag1488
asg1505
g0
(g66
g2
Ntp1525
Rp1526
(dp1527
g14
I00
sg32
I01
sg64
I2500
sg15
I00
sbsbag0
(g208
g2
Ntp1528
Rp1529
(dp1530
g14
I00
sg32
I01
sg15
I00
sg1488
g0
(g97
g2
Ntp1531
Rp1532
(dp1533
g14
I00
sg32
I01
sg64
F0.17
sg15
I00
sbsg1492
g0
(g97
g2
Ntp1534
Rp1535
(dp1536
g14
I00
sg32
I01
sg64
F1.00985
sg15
I00
sbsg1496
g0
(g97
g2
Ntp1537
Rp1538
(dp1539
g14
I00
sg32
I01
sg64
F2.86282e-10
sg15
I00
sbsg1500
g0
(g97
g2
Ntp1540
Rp1541
(dp1542
g14
I00
sg32
I01
sg64
F7.84089e-06
sg15
I00
sbsg11
(lp1543
g1492
ag1496
ag1500
ag1505
ag1488
asg1505
g0
(g66
g2
Ntp1544
Rp1545
(dp1546
g14
I00
sg32
I01
sg64
I27370
sg15
I00
sbsbag0
(g208
g2
Ntp1547
Rp1548
(dp1549
g14
I00
sg32
I01
sg15
I00
sg1488
g0
(g97
g2
Ntp1550
Rp1551
(dp1552
g14
I00
sg32
I01
sg64
F0.196
sg15
I00
sbsg1492
g0
(g97
g2
Ntp1553
Rp1554
(dp1555
g14
I00
sg32
I01
sg64
F1.00546
sg15
I00
sbsg1496
g0
(g97
g2
Ntp1556
Rp1557
(dp1558
g14
I00
sg32
I01
sg64
F1.27011e-10
sg15
I00
sbsg1500
g0
(g97
g2
Ntp1559
Rp1560
(dp1561
g14
I00
sg32
I01
sg64
F6.40239e-06
sg15
I00
sbsg11
(lp1562
g1492
ag1496
ag1500
ag1505
ag1488
asg1505
g0
(g66
g2
Ntp1563
Rp1564
(dp1565
g14
I00
sg32
I01
sg64
I38018
sg15
I00
sbsbag0
(g208
g2
Ntp1566
Rp1567
(dp1568
g14
I00
sg32
I01
sg15
I00
sg1488
g0
(g97
g2
Ntp1569
Rp1570
(dp1571
g14
I00
sg32
I01
sg64
F0.17
sg15
I00
sbsg1492
g0
(g97
g2
Ntp1572
Rp1573
(dp1574
g14
I00
sg32
I01
sg64
F1.00985
sg15
I00
sbsg1496
g0
(g97
g2
Ntp1575
Rp1576
(dp1577
g14
I00
sg32
I01
sg64
F2.86282e-10
sg15
I00
sbsg1500
g0
(g97
g2
Ntp1578
Rp1579
(dp1580
g14
I00
sg32
I01
sg64
F7.84089e-06
sg15
I00
sbsg11
(lp1581
g1492
ag1496
ag1500
ag1505
ag1488
asg1505
g0
(g66
g2
Ntp1582
Rp1583
(dp1584
g14
I00
sg32
I01
sg64
I27370
sg15
I00
sbsbag0
(g208
g2
Ntp1585
Rp1586
(dp1587
g14
I00
sg32
I01
sg15
I00
sg1488
g0
(g97
g2
Ntp1588
Rp1589
(dp1590
g14
I00
sg32
I01
sg64
F0.196
sg15
I00
sbsg1492
g0
(g97
g2
Ntp1591
Rp1592
(dp1593
g14
I00
sg32
I01
sg64
F1.00546
sg15
I00
sbsg1496
g0
(g97
g2
Ntp1594
Rp1595
(dp1596
g14
I00
sg32
I01
sg64
F1.27011e-10
sg15
I00
sbsg1500
g0
(g97
g2
Ntp1597
Rp1598
(dp1599
g14
I00
sg32
I01
sg64
F6.40239e-06
sg15
I00
sbsg11
(lp1600
g1492
ag1496
ag1500
ag1505
ag1488
asg1505
g0
(g66
g2
Ntp1601
Rp1602
(dp1603
g14
I00
sg32
I01
sg64
I38018
sg15
I00
sbsbag0
(g208
g2
Ntp1604
Rp1605
(dp1606
g14
I00
sg32
I01
sg15
I00
sg1488
g0
(g97
g2
Ntp1607
Rp1608
(dp1609
g14
I00
sg32
I01
sg64
F0.0
sg15
I00
sbsg1492
g0
(g97
g2
Ntp1610
Rp1611
(dp1612
g14
I00
sg32
I01
sg64
F1.0
sg15
I00
sbsg1496
g0
(g97
g2
Ntp1613
Rp1614
(dp1615
g14
I00
sg32
I01
sg64
F0.0
sg15
I00
sbsg1500
g0
(g97
g2
Ntp1616
Rp1617
(dp1618
g14
I00
sg32
I01
sg64
F0.0
sg15
I00
sbsg11
(lp1619
g1492
ag1496
ag1500
ag1505
ag1488
asg1505
g0
(g66
g2
Ntp1620
Rp1621
(dp1622
g14
I00
sg32
I01
sg64
I0
sg15
I00
sbsbatp1623
Rp1624
(dp1625
g14
I00
sg32
I01
sg15
I00
sg33
I1
sbsg34
g923
sg1173
g0
(g60
g2
Ntp1626
Rp1627
(dp1628
g14
I00
sg32
I01
sg64
I01
sg15
I00
sbsg1174
g0
(g208
g2
Ntp1629
Rp1630
(dp1631
g14
I00
sg32
I01
sg1065
g0
(g66
g2
Ntp1632
Rp1633
(dp1634
g14
I00
sg32
I01
sg64
I1
sg15
I00
sbsg15
I00
sg1069
g0
(g97
g2
Ntp1635
Rp1636
(dp1637
g14
I00
sg32
I01
sg64
F3.33
sg15
I00
sbsg1073
g0
(g66
g2
Ntp1638
Rp1639
(dp1640
g14
I00
sg32
I01
sg64
I301
sg15
I00
sbsg1077
g0
(g66
g2
Ntp1641
Rp1642
(dp1643
g14
I00
sg32
I01
sg64
I-9999
sg15
I00
sbsg1081
g0
(g796
g20
(lp1644
F0.0
atp1645
Rp1646
(dp1647
g14
I00
sg32
I01
sg15
I00
sbsg1086
g0
(g796
g20
(lp1648
F0.0697
aF-0.7405
aF12.38
aF-671.9
atp1649
Rp1650
(dp1651
g14
I00
sg32
I01
sg15
I00
sbsg1091
g0
(g796
g20
(lp1652
F0.297
aF0.298
aF0.298
aF0.313
atp1653
Rp1654
(dp1655
g14
I00
sg32
I01
sg15
I00
sbsg1135
g0
(g796
g20
(lp1656
F0.14
aF0.135
atp1657
Rp1658
(dp1659
g14
I00
sg32
I01
sg15
I00
sbsg1126
g0
(g60
g2
Ntp1660
Rp1661
(dp1662
g14
I00
sg32
I01
sg64
I00
sg15
I00
sbsg11
(lp1663
g1065
ag1069
ag1073
ag1077
ag1131
ag1086
ag1091
ag1135
ag1126
ag1081
ag1132
ag1133
ag1134
asg1131
g0
(g97
g2
Ntp1664
Rp1665
(dp1666
g14
I00
sg32
I01
sg64
F0.0
sg15
I00
sbsg1132
g0
(g97
g2
Ntp1667
Rp1668
(dp1669
g14
I00
sg32
I01
sg64
F13.33
sg15
I00
sbsg1133
g0
(g66
g2
Ntp1670
Rp1671
(dp1672
g14
I00
sg32
I01
sg64
I301
sg15
I00
sbsg1134
g0
(g796
g20
(lp1673
F0.0
aF0.0
atp1674
Rp1675
(dp1676
g14
I00
sg32
I01
sg15
I00
sbsbsbsg237
g240
sg614
g616
ssg172
g160
sg1029
g1031
sS'CSCGeometryESModule'
p1677
g0
(g7
g2
Ntp1678
Rp1679
(dp1680
g11
(lp1681
g178
aS'useDDD'
p1682
aS'debugV'
p1683
aS'useGangedStripsInME1a'
p1684
ag936
aS'useOnlyWiresInME1a'
p1685
aS'useRealWireGeometry'
p1686
aS'useCentreTIOffsets'
p1687
ag189
asg14
I00
sg178
g0
(g74
g2
Ntp1688
Rp1689
(dp1690
g14
I00
sg32
I01
sg64
g78
sg15
I00
sbsg15
I00
sg1683
g0
(g60
g2
Ntp1691
Rp1692
(dp1693
g14
I00
sg32
I00
sg64
I00
sg15
I00
sbsg17
g18
sg1684
g0
(g60
g2
Ntp1694
Rp1695
(dp1696
g14
I00
sg32
I01
sg64
I01
sg15
I00
sbsg936
g0
(g74
g2
Ntp1697
Rp1698
(dp1699
g14
I00
sg32
I01
sg64
g78
sg15
I00
sbsg1685
g0
(g60
g2
Ntp1700
Rp1701
(dp1702
g14
I00
sg32
I01
sg64
I00
sg15
I00
sbsg1682
g0
(g60
g2
Ntp1703
Rp1704
(dp1705
g14
I00
sg32
I01
sg64
I00
sg15
I00
sbsg16
I56
sg1687
g0
(g60
g2
Ntp1706
Rp1707
(dp1708
g14
I00
sg32
I01
sg64
I00
sg15
I00
sbsg34
g1677
sg1686
g0
(g60
g2
Ntp1709
Rp1710
(dp1711
g14
I00
sg32
I01
sg64
I01
sg15
I00
sbsg189
g0
(g60
g2
Ntp1712
Rp1713
(dp1714
g14
I00
sg32
I01
sg64
I01
sg15
I00
sbsg35
g1677
sbsS'EcalBarrelGeometryFromDBEP'
p1715
g0
(g7
g2
Ntp1716
Rp1717
(dp1718
g11
(lp1719
g189
asg14
I00
sg15
I01
sg16
I56
sg17
g18
sg34
g1715
sg189
g0
(g60
g2
Ntp1720
Rp1721
(dp1722
g14
I00
sg32
I01
sg64
I01
sg15
I01
sbsg35
g1715
sbsS'trackerNumberingGeometryDB'
p1723
g0
(g7
g2
Ntp1724
Rp1725
(dp1726
g11
(lp1727
g178
ag935
asg14
I00
sg178
g0
(g74
g2
Ntp1728
Rp1729
(dp1730
g14
I00
sg32
I01
sg64
g78
sg15
I00
sbsg15
I00
sg16
I56
sg17
g18
sg34
g1723
sg935
g0
(g60
g2
Ntp1731
Rp1732
(dp1733
g14
I00
sg32
I01
sg64
I00
sg15
I00
sbsg35
S'TrackerGeometricDetESModule'
p1734
sbsS'_Process__name'
p1735
g506
sg923
g1041
sS'_cloneToObjectDict'
p1736
(dp1737
I140202875745168
g785
sI140202875291280
g52
sI140202875935248
g315
sI140202875634704
g0
(g7
g2
Ntp1738
Rp1739
(dp1740
g11
(lp1741
S'ComponentType'
p1742
ag318
aS'parameters'
p1743
asg14
I00
sg15
I00
sg1743
g0
(g208
g2
Ntp1744
Rp1745
(dp1746
g14
I00
sg32
I01
sg15
I00
sg11
(lp1747
sbsg16
I56
sg318
g0
(g74
g2
Ntp1748
Rp1749
(dp1750
g14
I00
sg32
I01
sg64
S'stripCPE'
p1751
sg15
I00
sbsg1742
g0
(g74
g2
Ntp1752
Rp1753
(dp1754
g14
I00
sg32
I01
sg64
S'SimpleStripCPE'
p1755
sg15
I00
sbsg17
g18
sg34
S'stripCPEESProducer'
p1756
sg35
S'StripCPEESProducer'
p1757
sbsI140202875745488
g860
sI140202875681296
g1679
sI140202875716880
g1007
sI140202875936272
g0
(g7
g2
Ntp1758
Rp1759
(dp1760
g11
(lp1761
S'version'
p1762
ag993
ag879
asg14
I00
sg15
I01
sg16
I56
sg17
g18
sg879
g0
(g74
g2
Ntp1763
Rp1764
(dp1765
g14
I00
sg32
I00
sg64
S'ParabolicMf'
p1766
sg15
I01
sbsg1762
g0
(g74
g2
Ntp1767
Rp1768
(dp1769
g14
I00
sg32
I01
sg64
S'Parabolic'
p1770
sg15
I00
sbsg993
g0
(g66
g2
Ntp1771
Rp1772
(dp1773
g14
I00
sg32
I01
sg64
I-1
sg15
I00
sbsg34
S'ParabolicParametrizedMagneticFieldProducer'
p1774
sg35
S'AutoParametrizedMagneticFieldProducer'
p1775
sbsI140202875991440
g240
sI140202875744848
g0
(g7
g2
Ntp1776
Rp1777
(dp1778
g11
(lp1779
g189
asg14
I00
sg15
I00
sg16
I56
sg17
g18
sg34
S'ZdcGeometryFromDBEP'
p1780
sg189
g0
(g60
g2
Ntp1781
Rp1782
(dp1783
g14
I00
sg32
I01
sg64
I00
sg15
I00
sbsg35
g1780
sbsI140202875606544
g0
(g7
g2
Ntp1784
Rp1785
(dp1786
g11
(lp1787
g178
asg14
I00
sg178
g0
(g74
g2
Ntp1788
Rp1789
(dp1790
g14
I00
sg32
I01
sg64
g78
sg15
I00
sbsg15
I00
sg16
I56
sg17
g18
sg34
S'CastorDbProducer'
p1791
sg35
g1791
sbsI140202875745936
g0
(g7
g2
Ntp1792
Rp1793
(dp1794
g11
(lp1795
sg14
I00
sg15
I00
sg16
I56
sg17
g18
sg34
S'EcalElectronicsMappingBuilder'
p1796
sg35
g1796
sbsI140202875717328
g9
sI140202875293520
g342
sI140202875504400
g616
sI140202875746192
g819
sI140202875718800
g186
sI140202875291664
g146
sI140202875717712
g369
sI140202875716496
g364
sI140202875609040
g0
(g7
g2
Ntp1797
Rp1798
(dp1799
g11
(lp1800
g873
aS'LorentzAngleDeconvMode'
p1801
aS'LorentzAnglePeakMode'
p1802
asg14
I00
sg15
I00
sg16
I56
sg17
g18
sg873
g0
(g208
g2
Ntp1803
Rp1804
(dp1805
g14
I00
sg32
I01
sg15
I00
sg879
g0
(g74
g2
Ntp1806
Rp1807
(dp1808
g14
I00
sg32
I00
sg64
g78
sg15
I00
sbsg212
g0
(g74
g2
Ntp1809
Rp1810
(dp1811
g14
I00
sg32
I01
sg64
g886
sg15
I00
sbsg11
(lp1812
g212
ag879
asbsg34
S'siStripLorentzAngleDepESProducer'
p1813
sg1802
g0
(g208
g2
Ntp1814
Rp1815
(dp1816
g14
I00
sg32
I01
sg15
I00
sg879
g0
(g74
g2
Ntp1817
Rp1818
(dp1819
g14
I00
sg32
I00
sg64
g894
sg15
I00
sbsg212
g0
(g74
g2
Ntp1820
Rp1821
(dp1822
g14
I00
sg32
I01
sg64
S'SiStripLorentzAngleRcd'
p1823
sg15
I00
sbsg11
(lp1824
g212
ag879
asbsg35
S'SiStripLorentzAngleDepESProducer'
p1825
sg1801
g0
(g208
g2
Ntp1826
Rp1827
(dp1828
g14
I00
sg32
I01
sg15
I00
sg879
g0
(g74
g2
Ntp1829
Rp1830
(dp1831
g14
I00
sg32
I00
sg64
g906
sg15
I00
sbsg212
g0
(g74
g2
Ntp1832
Rp1833
(dp1834
g14
I00
sg32
I01
sg64
g1823
sg15
I00
sbsg11
(lp1835
g212
ag879
asbsbsI140202875717968
g1717
sI140202875746704
g175
sI140202875505104
g793
sI140202875505168
g0
(g7
g2
Ntp1836
Rp1837
(dp1838
g11
(lp1839
S'file'
p1840
aS'dump'
p1841
asg14
I00
sg15
I00
sg1841
g0
(g19
g20
(lp1842
g78
atp1843
Rp1844
(dp1845
g14
I00
sg32
I00
sg15
I00
sg33
I1
sbsg16
I56
sg17
g18
sg1840
g0
(g74
g2
Ntp1846
Rp1847
(dp1848
g14
I00
sg32
I00
sg64
g78
sg15
I00
sbsg34
S'hcal_db_producer'
p1849
sg35
S'HcalDbProducer'
p1850
sbsI140202875636304
g0
(g7
g2
Ntp1851
Rp1852
(dp1853
g11
(lp1854
sg14
I00
sg15
I00
sg16
I56
sg17
g18
sg34
S'sistripconn'
p1855
sg35
S'SiStripConnectivity'
p1856
sbsI140202875747024
g0
(g7
g2
Ntp1857
Rp1858
(dp1859
g11
(lp1860
g178
asg14
I00
sg178
g0
(g74
g2
Ntp1861
Rp1862
(dp1863
g14
I00
sg32
I01
sg64
g78
sg15
I00
sbsg15
I00
sg16
I56
sg17
g18
sg34
S'hcalDDDRecConstants'
p1864
sg35
S'HcalDDDRecConstantsESModule'
p1865
sbsI140202875718416
g0
(g7
g2
Ntp1866
Rp1867
(dp1868
g11
(lp1869
g189
asg14
I00
sg15
I01
sg16
I56
sg17
g18
sg34
S'HcalGeometryFromDBEP'
p1870
sg189
g0
(g60
g2
Ntp1871
Rp1872
(dp1873
g14
I00
sg32
I01
sg64
I01
sg15
I01
sbsg35
g1870
sbsI140202875681616
g0
(g7
g2
Ntp1874
Rp1875
(dp1876
g11
(lp1877
g1682
aS'compatibiltyWith11'
p1878
asg14
I00
sg15
I00
sg16
I56
sg17
g18
sg1682
g0
(g60
g2
Ntp1879
Rp1880
(dp1881
g14
I00
sg32
I00
sg64
I00
sg15
I00
sbsg1878
g0
(g60
g2
Ntp1882
Rp1883
(dp1884
g14
I00
sg32
I00
sg64
I01
sg15
I00
sbsg34
S'RPCGeometryESModule'
p1885
sg35
g1885
sbsI140202875718480
g0
(g7
g2
Ntp1886
Rp1887
(dp1888
g11
(lp1889
sg14
I00
sg15
I00
sg16
I56
sg17
g18
sg34
S'HcalAlignmentEP'
p1890
sg35
g1890
sbsI140202875747216
g932
sI140202875292752
g84
sI140202875935888
g990
sI140202875571408
g1041
sI140202875292944
g41
sI140202875608144
g0
(g7
g2
Ntp1891
Rp1892
(dp1893
g11
(lp1894
S'printDebug'
p1895
ag178
aS'APVGain'
p1896
aS'AutomaticNormalization'
p1897
asg14
I00
sg178
g0
(g74
g2
Ntp1898
Rp1899
(dp1900
g14
I00
sg32
I01
sg64
g78
sg15
I00
sbsg15
I00
sg1897
g0
(g60
g2
Ntp1901
Rp1902
(dp1903
g14
I00
sg32
I01
sg64
I00
sg15
I00
sbsg16
I56
sg1895
g0
(g60
g2
Ntp1904
Rp1905
(dp1906
g14
I00
sg32
I00
sg64
I00
sg15
I00
sbsg17
g18
sg1896
g0
(g206
g20
(lp1907
g0
(g208
g2
Ntp1908
Rp1909
(dp1910
g14
I00
sg32
I01
sg15
I00
sS'Label'
p1911
g0
(g74
g2
Ntp1912
Rp1913
(dp1914
g14
I00
sg32
I00
sg64
g78
sg15
I00
sbsS'Record'
p1915
g0
(g74
g2
Ntp1916
Rp1917
(dp1918
g14
I00
sg32
I01
sg64
S'SiStripApvGainRcd'
p1919
sg15
I00
sbsS'NormalizationFactor'
p1920
g0
(g97
g2
Ntp1921
Rp1922
(dp1923
g14
I00
sg32
I00
sg64
F1.0
sg15
I00
sbsg11
(lp1924
g1915
ag1920
ag1911
asbag0
(g208
g2
Ntp1925
Rp1926
(dp1927
g14
I00
sg32
I01
sg15
I00
sg1911
g0
(g74
g2
Ntp1928
Rp1929
(dp1930
g14
I00
sg32
I00
sg64
g78
sg15
I00
sbsg1915
g0
(g74
g2
Ntp1931
Rp1932
(dp1933
g14
I00
sg32
I01
sg64
S'SiStripApvGain2Rcd'
p1934
sg15
I00
sbsg1920
g0
(g97
g2
Ntp1935
Rp1936
(dp1937
g14
I00
sg32
I00
sg64
F1.0
sg15
I00
sbsg11
(lp1938
g1915
ag1920
ag1911
asbatp1939
Rp1940
(dp1941
g14
I00
sg32
I01
sg15
I00
sg33
I1
sbsg34
S'siStripGainESProducer'
p1942
sg35
S'SiStripGainESProducer'
p1943
sbsI140202875748112
g0
(g7
g2
Ntp1944
Rp1945
(dp1946
g11
(lp1947
g178
ag1682
ag1683
ag1684
ag936
ag1685
ag1686
ag1687
ag189
asg14
I00
sg178
g0
(g74
g2
Ntp1948
Rp1949
(dp1950
g14
I00
sg32
I01
sg64
g940
sg15
I01
sbsg15
I01
sg1683
g0
(g60
g2
Ntp1951
Rp1952
(dp1953
g14
I00
sg32
I00
sg64
I00
sg15
I00
sbsg17
S'/cvmfs/cms.cern.ch/slc7_amd64_gcc820/cms/cmssw-patch/CMSSW_10_6_20_patch1/python/Geometry/CSCGeometryBuilder/idealForDigiCscGeometryDB_cff.py'
p1954
sg1684
g0
(g60
g2
Ntp1955
Rp1956
(dp1957
g14
I00
sg32
I01
sg64
I01
sg15
I00
sbsg936
g0
(g74
g2
Ntp1958
Rp1959
(dp1960
g14
I00
sg32
I01
sg64
g944
sg15
I01
sbsg1685
g0
(g60
g2
Ntp1961
Rp1962
(dp1963
g14
I00
sg32
I01
sg64
I00
sg15
I00
sbsg1682
g0
(g60
g2
Ntp1964
Rp1965
(dp1966
g14
I00
sg32
I01
sg64
I00
sg15
I00
sbsg16
I8
sg1687
g0
(g60
g2
Ntp1967
Rp1968
(dp1969
g14
I00
sg32
I01
sg64
I00
sg15
I00
sbsg34
S'idealForDigiCSCGeometry'
p1970
sg1686
g0
(g60
g2
Ntp1971
Rp1972
(dp1973
g14
I00
sg32
I01
sg64
I01
sg15
I00
sbsg189
g0
(g60
g2
Ntp1974
Rp1975
(dp1976
g14
I00
sg32
I01
sg64
I00
sg15
I01
sbsg35
g1677
sbsI140202875293072
g964
sI140202875682256
g973
sI140202875293200
g1031
sI140202875636176
g1012
sI140202875747920
g0
(g7
g2
Ntp1977
Rp1978
(dp1979
g11
(lp1980
g178
asg14
I00
sg178
g0
(g74
g2
Ntp1981
Rp1982
(dp1983
g14
I00
sg32
I01
sg64
g944
sg15
I01
sbsg15
I01
sg16
I5
sg17
S'/cvmfs/cms.cern.ch/slc7_amd64_gcc820/cms/cmssw-patch/CMSSW_10_6_20_patch1/python/Alignment/CommonAlignmentProducer/fakeForIdealAlignmentProducer_cfi.py'
p1984
sg34
S'fakeForIdealAlignment'
p1985
sg35
S'FakeAlignmentProducer'
p1986
sbsI140202875719312
g841
sI140202875936528
g0
(g7
g2
Ntp1987
Rp1988
(dp1989
g11
(lp1990
sg14
I00
sg15
I00
sg16
I56
sg17
g18
sg34
S'EcalLaserCorrectionService'
p1991
sg35
g1991
sbsI140202875682640
g1725
sI140202875634832
g0
(g7
g2
Ntp1992
Rp1993
(dp1994
g11
(lp1995
g1742
ag318
ag1743
asg14
I00
sg15
I01
sg1743
g0
(g208
g2
Ntp1996
Rp1997
(dp1998
g14
I00
sg32
I01
sS'maxChgOneMIP'
p1999
g0
(g97
g2
Ntp2000
Rp2001
(dp2002
g14
I00
sg32
I01
sg64
F6000.0
sg15
I00
sbsS'mLC_P2'
p2003
g0
(g97
g2
Ntp2004
Rp2005
(dp2006
g14
I00
sg32
I01
sg64
F0.3
sg15
I00
sbsS'mLC_P1'
p2007
g0
(g97
g2
Ntp2008
Rp2009
(dp2010
g14
I00
sg32
I01
sg64
F0.618
sg15
I00
sbsS'mLC_P0'
p2011
g0
(g97
g2
Ntp2012
Rp2013
(dp2014
g14
I00
sg32
I01
sg64
F-0.326
sg15
I00
sbsS'useLegacyError'
p2015
g0
(g60
g2
Ntp2016
Rp2017
(dp2018
g14
I00
sg32
I01
sg64
I00
sg15
I00
sbsS'mTIB_P1'
p2019
g0
(g97
g2
Ntp2020
Rp2021
(dp2022
g14
I00
sg32
I01
sg64
F0.202
sg15
I00
sbsS'mTEC_P1'
p2023
g0
(g97
g2
Ntp2024
Rp2025
(dp2026
g14
I00
sg32
I01
sg64
F0.471
sg15
I00
sbsS'mTEC_P0'
p2027
g0
(g97
g2
Ntp2028
Rp2029
(dp2030
g14
I00
sg32
I01
sg64
F-1.885
sg15
I00
sbsS'mTOB_P0'
p2031
g0
(g97
g2
Ntp2032
Rp2033
(dp2034
g14
I00
sg32
I01
sg64
F-1.026
sg15
I00
sbsS'mTOB_P1'
p2035
g0
(g97
g2
Ntp2036
Rp2037
(dp2038
g14
I00
sg32
I01
sg64
F0.253
sg15
I00
sbsS'mTIB_P0'
p2039
g0
(g97
g2
Ntp2040
Rp2041
(dp2042
g14
I00
sg32
I01
sg64
F-0.742
sg15
I00
sbsg11
(lp2043
g1999
ag2003
ag2007
ag2011
ag2015
ag2023
ag2027
ag2031
ag2035
ag2039
ag2019
aS'mTID_P0'
p2044
aS'mTID_P1'
p2045
asg2044
g0
(g97
g2
Ntp2046
Rp2047
(dp2048
g14
I00
sg32
I01
sg64
F-1.427
sg15
I00
sbsg2045
g0
(g97
g2
Ntp2049
Rp2050
(dp2051
g14
I00
sg32
I01
sg64
F0.433
sg15
I00
sbsg15
I00
sbsg16
I4
sg318
g0
(g74
g2
Ntp2052
Rp2053
(dp2054
g14
I00
sg32
I01
sg64
S'StripCPEfromTrackAngle'
p2055
sg15
I00
sbsg1742
g0
(g74
g2
Ntp2056
Rp2057
(dp2058
g14
I00
sg32
I01
sg64
g2055
sg15
I00
sbsg17
S'/cvmfs/cms.cern.ch/slc7_amd64_gcc820/cms/cmssw-patch/CMSSW_10_6_20_patch1/python/RecoLocalTracker/SiStripRecHitConverter/StripCPEfromTrackAngle_cfi.py'
p2059
sg34
S'StripCPEfromTrackAngleESProducer'
p2060
sg35
g1757
sbsI140202875637072
g198
sI140202875744336
g0
(g7
g2
Ntp2061
Rp2062
(dp2063
g11
(lp2064
sg14
I00
sg15
I00
sg16
I56
sg17
g18
sg34
S'CaloTowerTopologyEP'
p2065
sg35
g2065
sbsI140202875359376
g335
sI140202875290320
g0
(g7
g2
Ntp2066
Rp2067
(dp2068
g11
(lp2069
g178
ag935
ag189
ag936
asg14
I00
sg178
g0
(g74
g2
Ntp2070
Rp2071
(dp2072
g14
I00
sg32
I01
sg64
g940
sg15
I01
sbsg15
I01
sg936
g0
(g74
g2
Ntp2073
Rp2074
(dp2075
g14
I00
sg32
I01
sg64
g944
sg15
I01
sbsg17
S'/cvmfs/cms.cern.ch/slc7_amd64_gcc820/cms/cmssw-patch/CMSSW_10_6_20_patch1/python/Geometry/DTGeometryBuilder/idealForDigiDtGeometryDB_cff.py'
p2076
sg16
I8
sg34
S'idealForDigiDTGeometry'
p2077
sg935
g0
(g60
g2
Ntp2078
Rp2079
(dp2080
g14
I00
sg32
I01
sg64
I00
sg15
I00
sbsg189
g0
(g60
g2
Ntp2081
Rp2082
(dp2083
g14
I00
sg32
I01
sg64
I00
sg15
I01
sbsg35
g971
sbsI140202875605392
g919
sI140202875715920
g0
(g7
g2
Ntp2084
Rp2085
(dp2086
g11
(lp2087
g178
ag935
ag189
ag936
asg14
I00
sg178
g0
(g74
g2
Ntp2088
Rp2089
(dp2090
g14
I00
sg32
I01
sg64
g78
sg15
I00
sbsg15
I00
sg936
g0
(g74
g2
Ntp2091
Rp2092
(dp2093
g14
I00
sg32
I01
sg64
g78
sg15
I00
sbsg17
g18
sg16
I56
sg34
S'trackerGeometryDB'
p2094
sg935
g0
(g60
g2
Ntp2095
Rp2096
(dp2097
g14
I00
sg32
I01
sg64
I00
sg15
I00
sbsg189
g0
(g60
g2
Ntp2098
Rp2099
(dp2100
g14
I00
sg32
I01
sg64
I01
sg15
I00
sbsg35
g952
sbsI140202875679120
g0
(g7
g2
Ntp2101
Rp2102
(dp2103
g11
(lp2104
g178
aS'PrintDebugOutput'
p2105
aS'ThresholdForReducedGranularity'
p2106
aS'UseEmptyRunInfo'
p2107
aS'ReduceGranularity'
p2108
ag202
asg14
I00
sg178
g0
(g74
g2
Ntp2109
Rp2110
(dp2111
g14
I00
sg32
I01
sg64
g78
sg15
I00
sbsg15
I01
sg16
I56
sg17
g18
sg2106
g0
(g97
g2
Ntp2112
Rp2113
(dp2114
g14
I00
sg32
I01
sg64
F0.3
sg15
I00
sbsg34
S'siStripQualityESProducer'
p2115
sg2107
g0
(g60
g2
Ntp2116
Rp2117
(dp2118
g14
I00
sg32
I01
sg64
I00
sg15
I00
sbsg2108
g0
(g60
g2
Ntp2119
Rp2120
(dp2121
g14
I00
sg32
I01
sg64
I00
sg15
I00
sbsg202
g0
(g206
g20
(lp2122
g0
(g208
g2
Ntp2123
Rp2124
(dp2125
g14
I00
sg32
I01
sg15
I00
sg212
g0
(g74
g2
Ntp2126
Rp2127
(dp2128
g14
I00
sg32
I01
sg64
S'SiStripDetVOffRcd'
p2129
sg15
I00
sbsg217
g0
(g74
g2
Ntp2130
Rp2131
(dp2132
g14
I00
sg32
I01
sg64
g78
sg15
I00
sbsg11
(lp2133
g212
ag217
asbag0
(g208
g2
Ntp2134
Rp2135
(dp2136
g14
I00
sg32
I01
sg15
I00
sg212
g0
(g74
g2
Ntp2137
Rp2138
(dp2139
g14
I00
sg32
I01
sg64
S'SiStripDetCablingRcd'
p2140
sg15
I00
sbsg217
g0
(g74
g2
Ntp2141
Rp2142
(dp2143
g14
I00
sg32
I01
sg64
g78
sg15
I00
sbsg11
(lp2144
g212
ag217
asbag0
(g208
g2
Ntp2145
Rp2146
(dp2147
g14
I00
sg32
I01
sg15
I00
sg212
g0
(g74
g2
Ntp2148
Rp2149
(dp2150
g14
I00
sg32
I01
sg64
S'RunInfoRcd'
p2151
sg15
I00
sbsg217
g0
(g74
g2
Ntp2152
Rp2153
(dp2154
g14
I00
sg32
I01
sg64
g78
sg15
I00
sbsg11
(lp2155
g212
ag217
asbag0
(g208
g2
Ntp2156
Rp2157
(dp2158
g14
I00
sg32
I01
sg15
I00
sg212
g0
(g74
g2
Ntp2159
Rp2160
(dp2161
g14
I00
sg32
I01
sg64
S'SiStripBadChannelRcd'
p2162
sg15
I00
sbsg217
g0
(g74
g2
Ntp2163
Rp2164
(dp2165
g14
I00
sg32
I01
sg64
g78
sg15
I00
sbsg11
(lp2166
g212
ag217
asbag0
(g208
g2
Ntp2167
Rp2168
(dp2169
g14
I00
sg32
I01
sg15
I00
sg212
g0
(g74
g2
Ntp2170
Rp2171
(dp2172
g14
I00
sg32
I01
sg64
S'SiStripBadFiberRcd'
p2173
sg15
I00
sbsg217
g0
(g74
g2
Ntp2174
Rp2175
(dp2176
g14
I00
sg32
I01
sg64
g78
sg15
I00
sbsg11
(lp2177
g212
ag217
asbag0
(g208
g2
Ntp2178
Rp2179
(dp2180
g14
I00
sg32
I01
sg15
I00
sg212
g0
(g74
g2
Ntp2181
Rp2182
(dp2183
g14
I00
sg32
I01
sg64
S'SiStripBadModuleRcd'
p2184
sg15
I00
sbsg217
g0
(g74
g2
Ntp2185
Rp2186
(dp2187
g14
I00
sg32
I01
sg64
g78
sg15
I00
sbsg11
(lp2188
g212
ag217
asbag0
(g208
g2
Ntp2189
Rp2190
(dp2191
g14
I00
sg32
I01
sg15
I00
sg212
g0
(g74
g2
Ntp2192
Rp2193
(dp2194
g14
I00
sg32
I01
sg64
S'SiStripBadStripRcd'
p2195
sg15
I00
sbsg217
g0
(g74
g2
Ntp2196
Rp2197
(dp2198
g14
I00
sg32
I01
sg64
g78
sg15
I00
sbsg11
(lp2199
g212
ag217
asbatp2200
Rp2201
(dp2202
g14
I00
sg32
I01
sg15
I00
sg33
I1
sbsg35
S'SiStripQualityESProducer'
p2203
sg2105
g0
(g60
g2
Ntp2204
Rp2205
(dp2206
g14
I00
sg32
I01
sg64
I00
sg15
I00
sbsbsI140202875716112
g0
(g7
g2
Ntp2207
Rp2208
(dp2209
g11
(lp2210
sg14
I00
sg15
I00
sg16
I56
sg17
g18
sg34
S'GlobalTrackingGeometryESProducer'
p2211
sg35
g2211
sbsI140202875716304
g0
(g7
g2
Ntp2212
Rp2213
(dp2214
g11
(lp2215
g178
asg14
I00
sg178
g0
(g74
g2
Ntp2216
Rp2217
(dp2218
g14
I00
sg32
I01
sg64
g78
sg15
I00
sbsg15
I00
sg16
I56
sg17
g18
sg34
S'trackerTopology'
p2219
sg35
S'TrackerTopologyEP'
p2220
sbsI140202875716176
g0
(g7
g2
Ntp2221
Rp2222
(dp2223
g11
(lp2224
sg14
I00
sg15
I00
sg16
I56
sg17
g18
sg34
S'TrackerRecoGeometryESProducer'
p2225
sg35
g2225
sbsI140202875634384
g870
sI140202875717840
g0
(g7
g2
Ntp2226
Rp2227
(dp2228
g11
(lp2229
g189
asg14
I00
sg15
I01
sg16
I56
sg17
g18
sg34
S'EcalPreshowerGeometryFromDBEP'
p2230
sg189
g0
(g60
g2
Ntp2231
Rp2232
(dp2233
g14
I00
sg32
I01
sg64
I01
sg15
I01
sbsg35
g2230
sbssg1942
g1892
sg1885
g1875
sg1855
g1852
sg1780
g1777
sg2225
g2222
sg1813
g1798
sg2065
g2062
sg1774
g1759
sg1756
g1739
sg2219
g2213
sg73
g52
sg1870
g1867
sg916
g919
sg1796
g1793
sg2060
g1993
sS'_Process__aliases'
p2234
(dp2235
sg2211
g2208
sg2094
g2085
sg1890
g1887
sg2230
g2227
sg1864
g1858
sg1791
g1785
sg1970
g1945
sS'_Process__subProcesses'
p2236
(lp2237
sg1849
g1837
sg1991
g1988
sS'_Process__schedule'
p2238
Nsg2115
g2102
sg2077
g2067
sS'_Process__modifiers'
p2239
(tsS'_Process__filters'
p2240
(dp2241
sS'_Process__esproducers'
p2242
(dp2243
g6
g9
sg971
g973
sg988
g990
sg2060
g1993
sg783
g785
sg1005
g1007
sg2211
g2208
sg2094
g2085
sg1010
g1012
sg1780
g1777
sg1890
g1887
sg2230
g2227
sg1791
g1785
sg1864
g1858
sg1677
g1679
sg1715
g1717
sg1723
g1725
sg858
g860
sg1970
g1945
sg184
g186
sg868
g870
sg1849
g1837
sg1942
g1892
sg1885
g1875
sg1855
g1852
sg1991
g1988
sg1796
g1793
sg2115
g2102
sg2077
g2067
sg839
g841
sg196
g198
sg1813
g1798
sg2065
g2062
sg1774
g1759
sg313
g315
sg1756
g1739
sg173
g175
sg362
g364
sg2219
g2213
sg2225
g2222
sg367
g369
sg1985
g1978
sg930
g932
sg1870
g1867
ssS'_Process__partialschedules'
p2244
(dp2245
sg1985
g1978
sb.