(dp0
S'OriginalConfig'
p1
ccopy_reg
_reconstructor
p2
(cWMCore.Configuration
Configuration
p3
c__builtin__
object
p4
Ntp5
Rp6
(dp7
S'Site'
p8
g2
(cWMCore.Configuration
ConfigSection
p9
g4
Ntp10
Rp11
(dp12
S'_internal_skipChecks'
p13
I00
sS'_internal_documentation'
p14
S''
p15
sS'_internal_settings'
p16
c__builtin__
set
p17
((lp18
S'storageSite'
p19
atp20
Rp21
sS'_internal_name'
p22
g8
sS'_internal_docstrings'
p23
(dp24
sS'_internal_children'
p25
g17
((lp26
tp27
Rp28
sg19
S'T2_US_Caltech'
p29
sS'_internal_parent_ref'
p30
NsbsS'_internal_sections'
p31
(lp32
S'General'
p33
aS'JobType'
p34
aS'Data'
p35
ag8
aS'User'
p36
aS'Debug'
p37
asg36
g2
(g9
g4
Ntp38
Rp39
(dp40
g13
I00
sg14
g15
sg16
g17
((lp41
tp42
Rp43
sg22
g36
sg23
(dp44
sg25
g17
((lp45
tp46
Rp47
sg30
Nsbsg37
g2
(g9
g4
Ntp48
Rp49
(dp50
g13
I00
sg14
g15
sg16
g17
((lp51
tp52
Rp53
sg22
g37
sg23
(dp54
sg25
g17
((lp55
tp56
Rp57
sg30
Nsbsg33
g2
(g9
g4
Ntp58
Rp59
(dp60
g13
I00
sg14
g15
sg16
g17
((lp61
S'transferOutputs'
p62
aS'workArea'
p63
aS'requestName'
p64
atp65
Rp66
sg22
g33
sg23
(dp67
sg62
I01
sg25
g17
((lp68
tp69
Rp70
sg64
S'NANO_MC_jpsi_ccbar_9to30_VFNS_SPS_2017_13TeV_22-08-2023'
p71
sg30
Nsg63
S'crab_projects'
p72
sbsg35
g2
(g9
g4
Ntp73
Rp74
(dp75
S'outputDatasetTag'
p76
S'jpsi_ccbar_9to30_VFNS_SPS_2017_13TeV'
p77
sS'publishDBS'
p78
S'phys03'
p79
sg13
I00
sS'splitting'
p80
S'FileBased'
p81
sS'unitsPerJob'
p82
I1
sg14
g15
sg16
g17
((lp83
g76
ag78
aS'totalUnits'
p84
ag82
aS'userInputFiles'
p85
aS'inputDBS'
p86
ag80
aS'outLFNDirBase'
p87
aS'outputPrimaryDataset'
p88
aS'publication'
p89
atp90
Rp91
sg22
g35
sg86
g79
sg23
(dp92
sg88
S'CRAB_PrivateMC_RunII_UL_SPS_2017'
p93
sg25
g17
((lp94
tp95
Rp96
sg89
I01
sg87
S'/store/group/uerj/mabarros/'
p97
sg30
Nsg85
(lp98
S'root://xrootd-redir.ultralight.org:1094//store/group/uerj/mabarros/CRAB_PrivateMC_RunII_UL_SPS_2017/jpsi_ccbar_9to30_VFNS_SPS_2017_13TeV/230726_145415/0000/Jpsi_9to30_Dstar_SPS_2017_13TeV_AOD_1.root\n'
p99
aS'root://xrootd-redir.ultralight.org:1094//store/group/uerj/mabarros/CRAB_PrivateMC_RunII_UL_SPS_2017/jpsi_ccbar_9to30_VFNS_SPS_2017_13TeV/230726_145415/0000/Jpsi_9to30_Dstar_SPS_2017_13TeV_AOD_2.root\n'
p100
aS'root://xrootd-redir.ultralight.org:1094//store/group/uerj/mabarros/CRAB_PrivateMC_RunII_UL_SPS_2017/jpsi_ccbar_9to30_VFNS_SPS_2017_13TeV/230726_145415/0000/Jpsi_9to30_Dstar_SPS_2017_13TeV_AOD_3.root\n'
p101
aS'root://xrootd-redir.ultralight.org:1094//store/group/uerj/mabarros/CRAB_PrivateMC_RunII_UL_SPS_2017/jpsi_ccbar_9to30_VFNS_SPS_2017_13TeV/230726_145415/0000/Jpsi_9to30_Dstar_SPS_2017_13TeV_AOD_4.root\n'
p102
aS'root://xrootd-redir.ultralight.org:1094//store/group/uerj/mabarros/CRAB_PrivateMC_RunII_UL_SPS_2017/jpsi_ccbar_9to30_VFNS_SPS_2017_13TeV/230726_145415/0000/Jpsi_9to30_Dstar_SPS_2017_13TeV_AOD_5.root\n'
p103
aS'root://xrootd-redir.ultralight.org:1094//store/group/uerj/mabarros/CRAB_PrivateMC_RunII_UL_SPS_2017/jpsi_ccbar_9to30_VFNS_SPS_2017_13TeV/230726_145415/0000/Jpsi_9to30_Dstar_SPS_2017_13TeV_AOD_6.root\n'
p104
aS'root://xrootd-redir.ultralight.org:1094//store/group/uerj/mabarros/CRAB_PrivateMC_RunII_UL_SPS_2017/jpsi_ccbar_9to30_VFNS_SPS_2017_13TeV/230726_145415/0000/Jpsi_9to30_Dstar_SPS_2017_13TeV_AOD_7.root\n'
p105
aS'root://xrootd-redir.ultralight.org:1094//store/group/uerj/mabarros/CRAB_PrivateMC_RunII_UL_SPS_2017/jpsi_ccbar_9to30_VFNS_SPS_2017_13TeV/230726_145415/0000/Jpsi_9to30_Dstar_SPS_2017_13TeV_AOD_8.root\n'
p106
aS'root://xrootd-redir.ultralight.org:1094//store/group/uerj/mabarros/CRAB_PrivateMC_RunII_UL_SPS_2017/jpsi_ccbar_9to30_VFNS_SPS_2017_13TeV/230726_145415/0000/Jpsi_9to30_Dstar_SPS_2017_13TeV_AOD_9.root\n'
p107
aS'root://xrootd-redir.ultralight.org:1094//store/group/uerj/mabarros/CRAB_PrivateMC_RunII_UL_SPS_2017/jpsi_ccbar_9to30_VFNS_SPS_2017_13TeV/230726_145415/0000/Jpsi_9to30_Dstar_SPS_2017_13TeV_AOD_10.root\n'
p108
aS'root://xrootd-redir.ultralight.org:1094//store/group/uerj/mabarros/CRAB_PrivateMC_RunII_UL_SPS_2017/jpsi_ccbar_9to30_VFNS_SPS_2017_13TeV/230726_145415/0000/Jpsi_9to30_Dstar_SPS_2017_13TeV_AOD_11.root\n'
p109
aS'root://xrootd-redir.ultralight.org:1094//store/group/uerj/mabarros/CRAB_PrivateMC_RunII_UL_SPS_2017/jpsi_ccbar_9to30_VFNS_SPS_2017_13TeV/230726_145415/0000/Jpsi_9to30_Dstar_SPS_2017_13TeV_AOD_12.root\n'
p110
aS'root://xrootd-redir.ultralight.org:1094//store/group/uerj/mabarros/CRAB_PrivateMC_RunII_UL_SPS_2017/jpsi_ccbar_9to30_VFNS_SPS_2017_13TeV/230726_145415/0000/Jpsi_9to30_Dstar_SPS_2017_13TeV_AOD_13.root\n'
p111
aS'root://xrootd-redir.ultralight.org:1094//store/group/uerj/mabarros/CRAB_PrivateMC_RunII_UL_SPS_2017/jpsi_ccbar_9to30_VFNS_SPS_2017_13TeV/230726_145415/0000/Jpsi_9to30_Dstar_SPS_2017_13TeV_AOD_14.root\n'
p112
aS'root://xrootd-redir.ultralight.org:1094//store/group/uerj/mabarros/CRAB_PrivateMC_RunII_UL_SPS_2017/jpsi_ccbar_9to30_VFNS_SPS_2017_13TeV/230726_145415/0000/Jpsi_9to30_Dstar_SPS_2017_13TeV_AOD_15.root\n'
p113
aS'root://xrootd-redir.ultralight.org:1094//store/group/uerj/mabarros/CRAB_PrivateMC_RunII_UL_SPS_2017/jpsi_ccbar_9to30_VFNS_SPS_2017_13TeV/230726_145415/0000/Jpsi_9to30_Dstar_SPS_2017_13TeV_AOD_16.root\n'
p114
aS'root://xrootd-redir.ultralight.org:1094//store/group/uerj/mabarros/CRAB_PrivateMC_RunII_UL_SPS_2017/jpsi_ccbar_9to30_VFNS_SPS_2017_13TeV/230726_145415/0000/Jpsi_9to30_Dstar_SPS_2017_13TeV_AOD_17.root\n'
p115
aS'root://xrootd-redir.ultralight.org:1094//store/group/uerj/mabarros/CRAB_PrivateMC_RunII_UL_SPS_2017/jpsi_ccbar_9to30_VFNS_SPS_2017_13TeV/230726_145415/0000/Jpsi_9to30_Dstar_SPS_2017_13TeV_AOD_18.root\n'
p116
aS'root://xrootd-redir.ultralight.org:1094//store/group/uerj/mabarros/CRAB_PrivateMC_RunII_UL_SPS_2017/jpsi_ccbar_9to30_VFNS_SPS_2017_13TeV/230726_145415/0000/Jpsi_9to30_Dstar_SPS_2017_13TeV_AOD_19.root\n'
p117
aS'root://xrootd-redir.ultralight.org:1094//store/group/uerj/mabarros/CRAB_PrivateMC_RunII_UL_SPS_2017/jpsi_ccbar_9to30_VFNS_SPS_2017_13TeV/230726_145415/0000/Jpsi_9to30_Dstar_SPS_2017_13TeV_AOD_20.root\n'
p118
aS'root://xrootd-redir.ultralight.org:1094//store/group/uerj/mabarros/CRAB_PrivateMC_RunII_UL_SPS_2017/jpsi_ccbar_9to30_VFNS_SPS_2017_13TeV/230726_145415/0000/Jpsi_9to30_Dstar_SPS_2017_13TeV_AOD_21.root\n'
p119
aS'root://xrootd-redir.ultralight.org:1094//store/group/uerj/mabarros/CRAB_PrivateMC_RunII_UL_SPS_2017/jpsi_ccbar_9to30_VFNS_SPS_2017_13TeV/230726_145415/0000/Jpsi_9to30_Dstar_SPS_2017_13TeV_AOD_22.root\n'
p120
aS'root://xrootd-redir.ultralight.org:1094//store/group/uerj/mabarros/CRAB_PrivateMC_RunII_UL_SPS_2017/jpsi_ccbar_9to30_VFNS_SPS_2017_13TeV/230726_145415/0000/Jpsi_9to30_Dstar_SPS_2017_13TeV_AOD_23.root\n'
p121
aS'root://xrootd-redir.ultralight.org:1094//store/group/uerj/mabarros/CRAB_PrivateMC_RunII_UL_SPS_2017/jpsi_ccbar_9to30_VFNS_SPS_2017_13TeV/230726_145415/0000/Jpsi_9to30_Dstar_SPS_2017_13TeV_AOD_24.root\n'
p122
aS'root://xrootd-redir.ultralight.org:1094//store/group/uerj/mabarros/CRAB_PrivateMC_RunII_UL_SPS_2017/jpsi_ccbar_9to30_VFNS_SPS_2017_13TeV/230726_145415/0000/Jpsi_9to30_Dstar_SPS_2017_13TeV_AOD_25.root\n'
p123
aS'root://xrootd-redir.ultralight.org:1094//store/group/uerj/mabarros/CRAB_PrivateMC_RunII_UL_SPS_2017/jpsi_ccbar_9to30_VFNS_SPS_2017_13TeV/230726_145415/0000/Jpsi_9to30_Dstar_SPS_2017_13TeV_AOD_26.root\n'
p124
aS'root://xrootd-redir.ultralight.org:1094//store/group/uerj/mabarros/CRAB_PrivateMC_RunII_UL_SPS_2017/jpsi_ccbar_9to30_VFNS_SPS_2017_13TeV/230726_145415/0000/Jpsi_9to30_Dstar_SPS_2017_13TeV_AOD_27.root\n'
p125
aS'root://xrootd-redir.ultralight.org:1094//store/group/uerj/mabarros/CRAB_PrivateMC_RunII_UL_SPS_2017/jpsi_ccbar_9to30_VFNS_SPS_2017_13TeV/230726_145415/0000/Jpsi_9to30_Dstar_SPS_2017_13TeV_AOD_28.root\n'
p126
aS'root://xrootd-redir.ultralight.org:1094//store/group/uerj/mabarros/CRAB_PrivateMC_RunII_UL_SPS_2017/jpsi_ccbar_9to30_VFNS_SPS_2017_13TeV/230726_145415/0000/Jpsi_9to30_Dstar_SPS_2017_13TeV_AOD_29.root\n'
p127
aS'root://xrootd-redir.ultralight.org:1094//store/group/uerj/mabarros/CRAB_PrivateMC_RunII_UL_SPS_2017/jpsi_ccbar_9to30_VFNS_SPS_2017_13TeV/230726_145415/0000/Jpsi_9to30_Dstar_SPS_2017_13TeV_AOD_30.root\n'
p128
aS'root://xrootd-redir.ultralight.org:1094//store/group/uerj/mabarros/CRAB_PrivateMC_RunII_UL_SPS_2017/jpsi_ccbar_9to30_VFNS_SPS_2017_13TeV/230726_145415/0000/Jpsi_9to30_Dstar_SPS_2017_13TeV_AOD_31.root\n'
p129
aS'root://xrootd-redir.ultralight.org:1094//store/group/uerj/mabarros/CRAB_PrivateMC_RunII_UL_SPS_2017/jpsi_ccbar_9to30_VFNS_SPS_2017_13TeV/230726_145415/0000/Jpsi_9to30_Dstar_SPS_2017_13TeV_AOD_32.root\n'
p130
aS'root://xrootd-redir.ultralight.org:1094//store/group/uerj/mabarros/CRAB_PrivateMC_RunII_UL_SPS_2017/jpsi_ccbar_9to30_VFNS_SPS_2017_13TeV/230726_145415/0000/Jpsi_9to30_Dstar_SPS_2017_13TeV_AOD_33.root\n'
p131
aS'root://xrootd-redir.ultralight.org:1094//store/group/uerj/mabarros/CRAB_PrivateMC_RunII_UL_SPS_2017/jpsi_ccbar_9to30_VFNS_SPS_2017_13TeV/230726_145415/0000/Jpsi_9to30_Dstar_SPS_2017_13TeV_AOD_34.root\n'
p132
aS'root://xrootd-redir.ultralight.org:1094//store/group/uerj/mabarros/CRAB_PrivateMC_RunII_UL_SPS_2017/jpsi_ccbar_9to30_VFNS_SPS_2017_13TeV/230726_145415/0000/Jpsi_9to30_Dstar_SPS_2017_13TeV_AOD_35.root\n'
p133
aS'root://xrootd-redir.ultralight.org:1094//store/group/uerj/mabarros/CRAB_PrivateMC_RunII_UL_SPS_2017/jpsi_ccbar_9to30_VFNS_SPS_2017_13TeV/230726_145415/0000/Jpsi_9to30_Dstar_SPS_2017_13TeV_AOD_36.root\n'
p134
aS'root://xrootd-redir.ultralight.org:1094//store/group/uerj/mabarros/CRAB_PrivateMC_RunII_UL_SPS_2017/jpsi_ccbar_9to30_VFNS_SPS_2017_13TeV/230726_145415/0000/Jpsi_9to30_Dstar_SPS_2017_13TeV_AOD_37.root\n'
p135
aS'root://xrootd-redir.ultralight.org:1094//store/group/uerj/mabarros/CRAB_PrivateMC_RunII_UL_SPS_2017/jpsi_ccbar_9to30_VFNS_SPS_2017_13TeV/230726_145415/0000/Jpsi_9to30_Dstar_SPS_2017_13TeV_AOD_38.root\n'
p136
aS'root://xrootd-redir.ultralight.org:1094//store/group/uerj/mabarros/CRAB_PrivateMC_RunII_UL_SPS_2017/jpsi_ccbar_9to30_VFNS_SPS_2017_13TeV/230726_145415/0000/Jpsi_9to30_Dstar_SPS_2017_13TeV_AOD_39.root\n'
p137
aS'root://xrootd-redir.ultralight.org:1094//store/group/uerj/mabarros/CRAB_PrivateMC_RunII_UL_SPS_2017/jpsi_ccbar_9to30_VFNS_SPS_2017_13TeV/230726_145415/0000/Jpsi_9to30_Dstar_SPS_2017_13TeV_AOD_40.root\n'
p138
aS'root://xrootd-redir.ultralight.org:1094//store/group/uerj/mabarros/CRAB_PrivateMC_RunII_UL_SPS_2017/jpsi_ccbar_9to30_VFNS_SPS_2017_13TeV/230726_145415/0000/Jpsi_9to30_Dstar_SPS_2017_13TeV_AOD_41.root\n'
p139
aS'root://xrootd-redir.ultralight.org:1094//store/group/uerj/mabarros/CRAB_PrivateMC_RunII_UL_SPS_2017/jpsi_ccbar_9to30_VFNS_SPS_2017_13TeV/230726_145415/0000/Jpsi_9to30_Dstar_SPS_2017_13TeV_AOD_42.root\n'
p140
aS'root://xrootd-redir.ultralight.org:1094//store/group/uerj/mabarros/CRAB_PrivateMC_RunII_UL_SPS_2017/jpsi_ccbar_9to30_VFNS_SPS_2017_13TeV/230726_145415/0000/Jpsi_9to30_Dstar_SPS_2017_13TeV_AOD_43.root\n'
p141
aS'root://xrootd-redir.ultralight.org:1094//store/group/uerj/mabarros/CRAB_PrivateMC_RunII_UL_SPS_2017/jpsi_ccbar_9to30_VFNS_SPS_2017_13TeV/230726_145415/0000/Jpsi_9to30_Dstar_SPS_2017_13TeV_AOD_44.root\n'
p142
aS'root://xrootd-redir.ultralight.org:1094//store/group/uerj/mabarros/CRAB_PrivateMC_RunII_UL_SPS_2017/jpsi_ccbar_9to30_VFNS_SPS_2017_13TeV/230726_145415/0000/Jpsi_9to30_Dstar_SPS_2017_13TeV_AOD_45.root\n'
p143
aS'root://xrootd-redir.ultralight.org:1094//store/group/uerj/mabarros/CRAB_PrivateMC_RunII_UL_SPS_2017/jpsi_ccbar_9to30_VFNS_SPS_2017_13TeV/230726_145415/0000/Jpsi_9to30_Dstar_SPS_2017_13TeV_AOD_46.root\n'
p144
aS'root://xrootd-redir.ultralight.org:1094//store/group/uerj/mabarros/CRAB_PrivateMC_RunII_UL_SPS_2017/jpsi_ccbar_9to30_VFNS_SPS_2017_13TeV/230726_145415/0000/Jpsi_9to30_Dstar_SPS_2017_13TeV_AOD_47.root\n'
p145
aS'root://xrootd-redir.ultralight.org:1094//store/group/uerj/mabarros/CRAB_PrivateMC_RunII_UL_SPS_2017/jpsi_ccbar_9to30_VFNS_SPS_2017_13TeV/230726_145415/0000/Jpsi_9to30_Dstar_SPS_2017_13TeV_AOD_48.root\n'
p146
aS'root://xrootd-redir.ultralight.org:1094//store/group/uerj/mabarros/CRAB_PrivateMC_RunII_UL_SPS_2017/jpsi_ccbar_9to30_VFNS_SPS_2017_13TeV/230726_145415/0000/Jpsi_9to30_Dstar_SPS_2017_13TeV_AOD_49.root\n'
p147
aS'root://xrootd-redir.ultralight.org:1094//store/group/uerj/mabarros/CRAB_PrivateMC_RunII_UL_SPS_2017/jpsi_ccbar_9to30_VFNS_SPS_2017_13TeV/230726_145415/0000/Jpsi_9to30_Dstar_SPS_2017_13TeV_AOD_50.root\n'
p148
aS'root://xrootd-redir.ultralight.org:1094//store/group/uerj/mabarros/CRAB_PrivateMC_RunII_UL_SPS_2017/jpsi_ccbar_9to30_VFNS_SPS_2017_13TeV/230726_145415/0000/Jpsi_9to30_Dstar_SPS_2017_13TeV_AOD_51.root\n'
p149
aS'root://xrootd-redir.ultralight.org:1094//store/group/uerj/mabarros/CRAB_PrivateMC_RunII_UL_SPS_2017/jpsi_ccbar_9to30_VFNS_SPS_2017_13TeV/230726_145415/0000/Jpsi_9to30_Dstar_SPS_2017_13TeV_AOD_52.root\n'
p150
aS'root://xrootd-redir.ultralight.org:1094//store/group/uerj/mabarros/CRAB_PrivateMC_RunII_UL_SPS_2017/jpsi_ccbar_9to30_VFNS_SPS_2017_13TeV/230726_145415/0000/Jpsi_9to30_Dstar_SPS_2017_13TeV_AOD_53.root\n'
p151
aS'root://xrootd-redir.ultralight.org:1094//store/group/uerj/mabarros/CRAB_PrivateMC_RunII_UL_SPS_2017/jpsi_ccbar_9to30_VFNS_SPS_2017_13TeV/230726_145415/0000/Jpsi_9to30_Dstar_SPS_2017_13TeV_AOD_54.root\n'
p152
aS'root://xrootd-redir.ultralight.org:1094//store/group/uerj/mabarros/CRAB_PrivateMC_RunII_UL_SPS_2017/jpsi_ccbar_9to30_VFNS_SPS_2017_13TeV/230726_145415/0000/Jpsi_9to30_Dstar_SPS_2017_13TeV_AOD_55.root\n'
p153
aS'root://xrootd-redir.ultralight.org:1094//store/group/uerj/mabarros/CRAB_PrivateMC_RunII_UL_SPS_2017/jpsi_ccbar_9to30_VFNS_SPS_2017_13TeV/230726_145415/0000/Jpsi_9to30_Dstar_SPS_2017_13TeV_AOD_56.root\n'
p154
aS'root://xrootd-redir.ultralight.org:1094//store/group/uerj/mabarros/CRAB_PrivateMC_RunII_UL_SPS_2017/jpsi_ccbar_9to30_VFNS_SPS_2017_13TeV/230726_145415/0000/Jpsi_9to30_Dstar_SPS_2017_13TeV_AOD_57.root\n'
p155
aS'root://xrootd-redir.ultralight.org:1094//store/group/uerj/mabarros/CRAB_PrivateMC_RunII_UL_SPS_2017/jpsi_ccbar_9to30_VFNS_SPS_2017_13TeV/230726_145415/0000/Jpsi_9to30_Dstar_SPS_2017_13TeV_AOD_58.root\n'
p156
aS'root://xrootd-redir.ultralight.org:1094//store/group/uerj/mabarros/CRAB_PrivateMC_RunII_UL_SPS_2017/jpsi_ccbar_9to30_VFNS_SPS_2017_13TeV/230726_145415/0000/Jpsi_9to30_Dstar_SPS_2017_13TeV_AOD_59.root\n'
p157
aS'root://xrootd-redir.ultralight.org:1094//store/group/uerj/mabarros/CRAB_PrivateMC_RunII_UL_SPS_2017/jpsi_ccbar_9to30_VFNS_SPS_2017_13TeV/230726_145415/0000/Jpsi_9to30_Dstar_SPS_2017_13TeV_AOD_60.root\n'
p158
aS'root://xrootd-redir.ultralight.org:1094//store/group/uerj/mabarros/CRAB_PrivateMC_RunII_UL_SPS_2017/jpsi_ccbar_9to30_VFNS_SPS_2017_13TeV/230726_145415/0000/Jpsi_9to30_Dstar_SPS_2017_13TeV_AOD_62.root\n'
p159
aS'root://xrootd-redir.ultralight.org:1094//store/group/uerj/mabarros/CRAB_PrivateMC_RunII_UL_SPS_2017/jpsi_ccbar_9to30_VFNS_SPS_2017_13TeV/230726_145415/0000/Jpsi_9to30_Dstar_SPS_2017_13TeV_AOD_63.root\n'
p160
aS'root://xrootd-redir.ultralight.org:1094//store/group/uerj/mabarros/CRAB_PrivateMC_RunII_UL_SPS_2017/jpsi_ccbar_9to30_VFNS_SPS_2017_13TeV/230726_145415/0000/Jpsi_9to30_Dstar_SPS_2017_13TeV_AOD_64.root\n'
p161
aS'root://xrootd-redir.ultralight.org:1094//store/group/uerj/mabarros/CRAB_PrivateMC_RunII_UL_SPS_2017/jpsi_ccbar_9to30_VFNS_SPS_2017_13TeV/230726_145415/0000/Jpsi_9to30_Dstar_SPS_2017_13TeV_AOD_65.root\n'
p162
aS'root://xrootd-redir.ultralight.org:1094//store/group/uerj/mabarros/CRAB_PrivateMC_RunII_UL_SPS_2017/jpsi_ccbar_9to30_VFNS_SPS_2017_13TeV/230726_145415/0000/Jpsi_9to30_Dstar_SPS_2017_13TeV_AOD_66.root\n'
p163
aS'root://xrootd-redir.ultralight.org:1094//store/group/uerj/mabarros/CRAB_PrivateMC_RunII_UL_SPS_2017/jpsi_ccbar_9to30_VFNS_SPS_2017_13TeV/230726_145415/0000/Jpsi_9to30_Dstar_SPS_2017_13TeV_AOD_67.root\n'
p164
aS'root://xrootd-redir.ultralight.org:1094//store/group/uerj/mabarros/CRAB_PrivateMC_RunII_UL_SPS_2017/jpsi_ccbar_9to30_VFNS_SPS_2017_13TeV/230726_145415/0000/Jpsi_9to30_Dstar_SPS_2017_13TeV_AOD_68.root\n'
p165
aS'root://xrootd-redir.ultralight.org:1094//store/group/uerj/mabarros/CRAB_PrivateMC_RunII_UL_SPS_2017/jpsi_ccbar_9to30_VFNS_SPS_2017_13TeV/230726_145415/0000/Jpsi_9to30_Dstar_SPS_2017_13TeV_AOD_69.root\n'
p166
aS'root://xrootd-redir.ultralight.org:1094//store/group/uerj/mabarros/CRAB_PrivateMC_RunII_UL_SPS_2017/jpsi_ccbar_9to30_VFNS_SPS_2017_13TeV/230726_145415/0000/Jpsi_9to30_Dstar_SPS_2017_13TeV_AOD_70.root\n'
p167
aS'root://xrootd-redir.ultralight.org:1094//store/group/uerj/mabarros/CRAB_PrivateMC_RunII_UL_SPS_2017/jpsi_ccbar_9to30_VFNS_SPS_2017_13TeV/230726_145415/0000/Jpsi_9to30_Dstar_SPS_2017_13TeV_AOD_71.root\n'
p168
aS'root://xrootd-redir.ultralight.org:1094//store/group/uerj/mabarros/CRAB_PrivateMC_RunII_UL_SPS_2017/jpsi_ccbar_9to30_VFNS_SPS_2017_13TeV/230726_145415/0000/Jpsi_9to30_Dstar_SPS_2017_13TeV_AOD_72.root\n'
p169
aS'root://xrootd-redir.ultralight.org:1094//store/group/uerj/mabarros/CRAB_PrivateMC_RunII_UL_SPS_2017/jpsi_ccbar_9to30_VFNS_SPS_2017_13TeV/230726_145415/0000/Jpsi_9to30_Dstar_SPS_2017_13TeV_AOD_73.root\n'
p170
aS'root://xrootd-redir.ultralight.org:1094//store/group/uerj/mabarros/CRAB_PrivateMC_RunII_UL_SPS_2017/jpsi_ccbar_9to30_VFNS_SPS_2017_13TeV/230726_145415/0000/Jpsi_9to30_Dstar_SPS_2017_13TeV_AOD_74.root\n'
p171
aS'root://xrootd-redir.ultralight.org:1094//store/group/uerj/mabarros/CRAB_PrivateMC_RunII_UL_SPS_2017/jpsi_ccbar_9to30_VFNS_SPS_2017_13TeV/230726_145415/0000/Jpsi_9to30_Dstar_SPS_2017_13TeV_AOD_75.root\n'
p172
aS'root://xrootd-redir.ultralight.org:1094//store/group/uerj/mabarros/CRAB_PrivateMC_RunII_UL_SPS_2017/jpsi_ccbar_9to30_VFNS_SPS_2017_13TeV/230726_145415/0000/Jpsi_9to30_Dstar_SPS_2017_13TeV_AOD_76.root\n'
p173
aS'root://xrootd-redir.ultralight.org:1094//store/group/uerj/mabarros/CRAB_PrivateMC_RunII_UL_SPS_2017/jpsi_ccbar_9to30_VFNS_SPS_2017_13TeV/230726_145415/0000/Jpsi_9to30_Dstar_SPS_2017_13TeV_AOD_77.root\n'
p174
aS'root://xrootd-redir.ultralight.org:1094//store/group/uerj/mabarros/CRAB_PrivateMC_RunII_UL_SPS_2017/jpsi_ccbar_9to30_VFNS_SPS_2017_13TeV/230726_145415/0000/Jpsi_9to30_Dstar_SPS_2017_13TeV_AOD_78.root\n'
p175
aS'root://xrootd-redir.ultralight.org:1094//store/group/uerj/mabarros/CRAB_PrivateMC_RunII_UL_SPS_2017/jpsi_ccbar_9to30_VFNS_SPS_2017_13TeV/230726_145415/0000/Jpsi_9to30_Dstar_SPS_2017_13TeV_AOD_79.root\n'
p176
aS'root://xrootd-redir.ultralight.org:1094//store/group/uerj/mabarros/CRAB_PrivateMC_RunII_UL_SPS_2017/jpsi_ccbar_9to30_VFNS_SPS_2017_13TeV/230726_145415/0000/Jpsi_9to30_Dstar_SPS_2017_13TeV_AOD_80.root\n'
p177
aS'root://xrootd-redir.ultralight.org:1094//store/group/uerj/mabarros/CRAB_PrivateMC_RunII_UL_SPS_2017/jpsi_ccbar_9to30_VFNS_SPS_2017_13TeV/230726_145415/0000/Jpsi_9to30_Dstar_SPS_2017_13TeV_AOD_81.root\n'
p178
aS'root://xrootd-redir.ultralight.org:1094//store/group/uerj/mabarros/CRAB_PrivateMC_RunII_UL_SPS_2017/jpsi_ccbar_9to30_VFNS_SPS_2017_13TeV/230726_145415/0000/Jpsi_9to30_Dstar_SPS_2017_13TeV_AOD_82.root\n'
p179
aS'root://xrootd-redir.ultralight.org:1094//store/group/uerj/mabarros/CRAB_PrivateMC_RunII_UL_SPS_2017/jpsi_ccbar_9to30_VFNS_SPS_2017_13TeV/230726_145415/0000/Jpsi_9to30_Dstar_SPS_2017_13TeV_AOD_83.root\n'
p180
aS'root://xrootd-redir.ultralight.org:1094//store/group/uerj/mabarros/CRAB_PrivateMC_RunII_UL_SPS_2017/jpsi_ccbar_9to30_VFNS_SPS_2017_13TeV/230726_145415/0000/Jpsi_9to30_Dstar_SPS_2017_13TeV_AOD_84.root\n'
p181
aS'root://xrootd-redir.ultralight.org:1094//store/group/uerj/mabarros/CRAB_PrivateMC_RunII_UL_SPS_2017/jpsi_ccbar_9to30_VFNS_SPS_2017_13TeV/230726_145415/0000/Jpsi_9to30_Dstar_SPS_2017_13TeV_AOD_85.root\n'
p182
aS'root://xrootd-redir.ultralight.org:1094//store/group/uerj/mabarros/CRAB_PrivateMC_RunII_UL_SPS_2017/jpsi_ccbar_9to30_VFNS_SPS_2017_13TeV/230726_145415/0000/Jpsi_9to30_Dstar_SPS_2017_13TeV_AOD_86.root\n'
p183
aS'root://xrootd-redir.ultralight.org:1094//store/group/uerj/mabarros/CRAB_PrivateMC_RunII_UL_SPS_2017/jpsi_ccbar_9to30_VFNS_SPS_2017_13TeV/230726_145415/0000/Jpsi_9to30_Dstar_SPS_2017_13TeV_AOD_87.root\n'
p184
aS'root://xrootd-redir.ultralight.org:1094//store/group/uerj/mabarros/CRAB_PrivateMC_RunII_UL_SPS_2017/jpsi_ccbar_9to30_VFNS_SPS_2017_13TeV/230726_145415/0000/Jpsi_9to30_Dstar_SPS_2017_13TeV_AOD_88.root\n'
p185
aS'root://xrootd-redir.ultralight.org:1094//store/group/uerj/mabarros/CRAB_PrivateMC_RunII_UL_SPS_2017/jpsi_ccbar_9to30_VFNS_SPS_2017_13TeV/230726_145415/0000/Jpsi_9to30_Dstar_SPS_2017_13TeV_AOD_89.root\n'
p186
aS'root://xrootd-redir.ultralight.org:1094//store/group/uerj/mabarros/CRAB_PrivateMC_RunII_UL_SPS_2017/jpsi_ccbar_9to30_VFNS_SPS_2017_13TeV/230726_145415/0000/Jpsi_9to30_Dstar_SPS_2017_13TeV_AOD_90.root\n'
p187
aS'root://xrootd-redir.ultralight.org:1094//store/group/uerj/mabarros/CRAB_PrivateMC_RunII_UL_SPS_2017/jpsi_ccbar_9to30_VFNS_SPS_2017_13TeV/230726_145415/0000/Jpsi_9to30_Dstar_SPS_2017_13TeV_AOD_91.root\n'
p188
aS'root://xrootd-redir.ultralight.org:1094//store/group/uerj/mabarros/CRAB_PrivateMC_RunII_UL_SPS_2017/jpsi_ccbar_9to30_VFNS_SPS_2017_13TeV/230726_145415/0000/Jpsi_9to30_Dstar_SPS_2017_13TeV_AOD_92.root\n'
p189
aS'root://xrootd-redir.ultralight.org:1094//store/group/uerj/mabarros/CRAB_PrivateMC_RunII_UL_SPS_2017/jpsi_ccbar_9to30_VFNS_SPS_2017_13TeV/230726_145415/0000/Jpsi_9to30_Dstar_SPS_2017_13TeV_AOD_93.root\n'
p190
aS'root://xrootd-redir.ultralight.org:1094//store/group/uerj/mabarros/CRAB_PrivateMC_RunII_UL_SPS_2017/jpsi_ccbar_9to30_VFNS_SPS_2017_13TeV/230726_145415/0000/Jpsi_9to30_Dstar_SPS_2017_13TeV_AOD_94.root\n'
p191
aS'root://xrootd-redir.ultralight.org:1094//store/group/uerj/mabarros/CRAB_PrivateMC_RunII_UL_SPS_2017/jpsi_ccbar_9to30_VFNS_SPS_2017_13TeV/230726_145415/0000/Jpsi_9to30_Dstar_SPS_2017_13TeV_AOD_95.root\n'
p192
aS'root://xrootd-redir.ultralight.org:1094//store/group/uerj/mabarros/CRAB_PrivateMC_RunII_UL_SPS_2017/jpsi_ccbar_9to30_VFNS_SPS_2017_13TeV/230726_145415/0000/Jpsi_9to30_Dstar_SPS_2017_13TeV_AOD_96.root\n'
p193
aS'root://xrootd-redir.ultralight.org:1094//store/group/uerj/mabarros/CRAB_PrivateMC_RunII_UL_SPS_2017/jpsi_ccbar_9to30_VFNS_SPS_2017_13TeV/230726_145415/0000/Jpsi_9to30_Dstar_SPS_2017_13TeV_AOD_97.root\n'
p194
aS'root://xrootd-redir.ultralight.org:1094//store/group/uerj/mabarros/CRAB_PrivateMC_RunII_UL_SPS_2017/jpsi_ccbar_9to30_VFNS_SPS_2017_13TeV/230726_145415/0000/Jpsi_9to30_Dstar_SPS_2017_13TeV_AOD_98.root\n'
p195
aS'root://xrootd-redir.ultralight.org:1094//store/group/uerj/mabarros/CRAB_PrivateMC_RunII_UL_SPS_2017/jpsi_ccbar_9to30_VFNS_SPS_2017_13TeV/230726_145415/0000/Jpsi_9to30_Dstar_SPS_2017_13TeV_AOD_99.root\n'
p196
aS'root://xrootd-redir.ultralight.org:1094//store/group/uerj/mabarros/CRAB_PrivateMC_RunII_UL_SPS_2017/jpsi_ccbar_9to30_VFNS_SPS_2017_13TeV/230726_145415/0000/Jpsi_9to30_Dstar_SPS_2017_13TeV_AOD_100.root\n'
p197
aS'root://xrootd-redir.ultralight.org:1094//store/group/uerj/mabarros/CRAB_PrivateMC_RunII_UL_SPS_2017/jpsi_ccbar_9to30_VFNS_SPS_2017_13TeV/230726_145415/0000/Jpsi_9to30_Dstar_SPS_2017_13TeV_AOD_101.root\n'
p198
aS'root://xrootd-redir.ultralight.org:1094//store/group/uerj/mabarros/CRAB_PrivateMC_RunII_UL_SPS_2017/jpsi_ccbar_9to30_VFNS_SPS_2017_13TeV/230726_145415/0000/Jpsi_9to30_Dstar_SPS_2017_13TeV_AOD_102.root\n'
p199
aS'root://xrootd-redir.ultralight.org:1094//store/group/uerj/mabarros/CRAB_PrivateMC_RunII_UL_SPS_2017/jpsi_ccbar_9to30_VFNS_SPS_2017_13TeV/230726_145415/0000/Jpsi_9to30_Dstar_SPS_2017_13TeV_AOD_103.root\n'
p200
aS'root://xrootd-redir.ultralight.org:1094//store/group/uerj/mabarros/CRAB_PrivateMC_RunII_UL_SPS_2017/jpsi_ccbar_9to30_VFNS_SPS_2017_13TeV/230726_145415/0000/Jpsi_9to30_Dstar_SPS_2017_13TeV_AOD_104.root\n'
p201
aS'root://xrootd-redir.ultralight.org:1094//store/group/uerj/mabarros/CRAB_PrivateMC_RunII_UL_SPS_2017/jpsi_ccbar_9to30_VFNS_SPS_2017_13TeV/230726_145415/0000/Jpsi_9to30_Dstar_SPS_2017_13TeV_AOD_105.root\n'
p202
aS'root://xrootd-redir.ultralight.org:1094//store/group/uerj/mabarros/CRAB_PrivateMC_RunII_UL_SPS_2017/jpsi_ccbar_9to30_VFNS_SPS_2017_13TeV/230726_145415/0000/Jpsi_9to30_Dstar_SPS_2017_13TeV_AOD_106.root\n'
p203
aS'root://xrootd-redir.ultralight.org:1094//store/group/uerj/mabarros/CRAB_PrivateMC_RunII_UL_SPS_2017/jpsi_ccbar_9to30_VFNS_SPS_2017_13TeV/230726_145415/0000/Jpsi_9to30_Dstar_SPS_2017_13TeV_AOD_107.root\n'
p204
aS'root://xrootd-redir.ultralight.org:1094//store/group/uerj/mabarros/CRAB_PrivateMC_RunII_UL_SPS_2017/jpsi_ccbar_9to30_VFNS_SPS_2017_13TeV/230726_145415/0000/Jpsi_9to30_Dstar_SPS_2017_13TeV_AOD_108.root\n'
p205
aS'root://xrootd-redir.ultralight.org:1094//store/group/uerj/mabarros/CRAB_PrivateMC_RunII_UL_SPS_2017/jpsi_ccbar_9to30_VFNS_SPS_2017_13TeV/230726_145415/0000/Jpsi_9to30_Dstar_SPS_2017_13TeV_AOD_109.root\n'
p206
aS'root://xrootd-redir.ultralight.org:1094//store/group/uerj/mabarros/CRAB_PrivateMC_RunII_UL_SPS_2017/jpsi_ccbar_9to30_VFNS_SPS_2017_13TeV/230726_145415/0000/Jpsi_9to30_Dstar_SPS_2017_13TeV_AOD_110.root\n'
p207
aS'root://xrootd-redir.ultralight.org:1094//store/group/uerj/mabarros/CRAB_PrivateMC_RunII_UL_SPS_2017/jpsi_ccbar_9to30_VFNS_SPS_2017_13TeV/230726_145415/0000/Jpsi_9to30_Dstar_SPS_2017_13TeV_AOD_111.root\n'
p208
aS'root://xrootd-redir.ultralight.org:1094//store/group/uerj/mabarros/CRAB_PrivateMC_RunII_UL_SPS_2017/jpsi_ccbar_9to30_VFNS_SPS_2017_13TeV/230726_145415/0000/Jpsi_9to30_Dstar_SPS_2017_13TeV_AOD_112.root\n'
p209
aS'root://xrootd-redir.ultralight.org:1094//store/group/uerj/mabarros/CRAB_PrivateMC_RunII_UL_SPS_2017/jpsi_ccbar_9to30_VFNS_SPS_2017_13TeV/230726_145415/0000/Jpsi_9to30_Dstar_SPS_2017_13TeV_AOD_113.root\n'
p210
aS'root://xrootd-redir.ultralight.org:1094//store/group/uerj/mabarros/CRAB_PrivateMC_RunII_UL_SPS_2017/jpsi_ccbar_9to30_VFNS_SPS_2017_13TeV/230726_145415/0000/Jpsi_9to30_Dstar_SPS_2017_13TeV_AOD_114.root\n'
p211
aS'root://xrootd-redir.ultralight.org:1094//store/group/uerj/mabarros/CRAB_PrivateMC_RunII_UL_SPS_2017/jpsi_ccbar_9to30_VFNS_SPS_2017_13TeV/230726_145415/0000/Jpsi_9to30_Dstar_SPS_2017_13TeV_AOD_115.root\n'
p212
aS'root://xrootd-redir.ultralight.org:1094//store/group/uerj/mabarros/CRAB_PrivateMC_RunII_UL_SPS_2017/jpsi_ccbar_9to30_VFNS_SPS_2017_13TeV/230726_145415/0000/Jpsi_9to30_Dstar_SPS_2017_13TeV_AOD_116.root\n'
p213
aS'root://xrootd-redir.ultralight.org:1094//store/group/uerj/mabarros/CRAB_PrivateMC_RunII_UL_SPS_2017/jpsi_ccbar_9to30_VFNS_SPS_2017_13TeV/230726_145415/0000/Jpsi_9to30_Dstar_SPS_2017_13TeV_AOD_117.root\n'
p214
aS'root://xrootd-redir.ultralight.org:1094//store/group/uerj/mabarros/CRAB_PrivateMC_RunII_UL_SPS_2017/jpsi_ccbar_9to30_VFNS_SPS_2017_13TeV/230726_145415/0000/Jpsi_9to30_Dstar_SPS_2017_13TeV_AOD_118.root\n'
p215
aS'root://xrootd-redir.ultralight.org:1094//store/group/uerj/mabarros/CRAB_PrivateMC_RunII_UL_SPS_2017/jpsi_ccbar_9to30_VFNS_SPS_2017_13TeV/230726_145415/0000/Jpsi_9to30_Dstar_SPS_2017_13TeV_AOD_119.root\n'
p216
aS'root://xrootd-redir.ultralight.org:1094//store/group/uerj/mabarros/CRAB_PrivateMC_RunII_UL_SPS_2017/jpsi_ccbar_9to30_VFNS_SPS_2017_13TeV/230726_145415/0000/Jpsi_9to30_Dstar_SPS_2017_13TeV_AOD_120.root\n'
p217
aS'root://xrootd-redir.ultralight.org:1094//store/group/uerj/mabarros/CRAB_PrivateMC_RunII_UL_SPS_2017/jpsi_ccbar_9to30_VFNS_SPS_2017_13TeV/230726_145415/0000/Jpsi_9to30_Dstar_SPS_2017_13TeV_AOD_121.root\n'
p218
aS'root://xrootd-redir.ultralight.org:1094//store/group/uerj/mabarros/CRAB_PrivateMC_RunII_UL_SPS_2017/jpsi_ccbar_9to30_VFNS_SPS_2017_13TeV/230726_145415/0000/Jpsi_9to30_Dstar_SPS_2017_13TeV_AOD_122.root\n'
p219
aS'root://xrootd-redir.ultralight.org:1094//store/group/uerj/mabarros/CRAB_PrivateMC_RunII_UL_SPS_2017/jpsi_ccbar_9to30_VFNS_SPS_2017_13TeV/230726_145415/0000/Jpsi_9to30_Dstar_SPS_2017_13TeV_AOD_123.root\n'
p220
aS'root://xrootd-redir.ultralight.org:1094//store/group/uerj/mabarros/CRAB_PrivateMC_RunII_UL_SPS_2017/jpsi_ccbar_9to30_VFNS_SPS_2017_13TeV/230726_145415/0000/Jpsi_9to30_Dstar_SPS_2017_13TeV_AOD_124.root\n'
p221
aS'root://xrootd-redir.ultralight.org:1094//store/group/uerj/mabarros/CRAB_PrivateMC_RunII_UL_SPS_2017/jpsi_ccbar_9to30_VFNS_SPS_2017_13TeV/230726_145415/0000/Jpsi_9to30_Dstar_SPS_2017_13TeV_AOD_125.root\n'
p222
aS'root://xrootd-redir.ultralight.org:1094//store/group/uerj/mabarros/CRAB_PrivateMC_RunII_UL_SPS_2017/jpsi_ccbar_9to30_VFNS_SPS_2017_13TeV/230726_145415/0000/Jpsi_9to30_Dstar_SPS_2017_13TeV_AOD_126.root\n'
p223
aS'root://xrootd-redir.ultralight.org:1094//store/group/uerj/mabarros/CRAB_PrivateMC_RunII_UL_SPS_2017/jpsi_ccbar_9to30_VFNS_SPS_2017_13TeV/230726_145415/0000/Jpsi_9to30_Dstar_SPS_2017_13TeV_AOD_127.root\n'
p224
aS'root://xrootd-redir.ultralight.org:1094//store/group/uerj/mabarros/CRAB_PrivateMC_RunII_UL_SPS_2017/jpsi_ccbar_9to30_VFNS_SPS_2017_13TeV/230726_145415/0000/Jpsi_9to30_Dstar_SPS_2017_13TeV_AOD_128.root\n'
p225
aS'root://xrootd-redir.ultralight.org:1094//store/group/uerj/mabarros/CRAB_PrivateMC_RunII_UL_SPS_2017/jpsi_ccbar_9to30_VFNS_SPS_2017_13TeV/230726_145415/0000/Jpsi_9to30_Dstar_SPS_2017_13TeV_AOD_129.root\n'
p226
aS'root://xrootd-redir.ultralight.org:1094//store/group/uerj/mabarros/CRAB_PrivateMC_RunII_UL_SPS_2017/jpsi_ccbar_9to30_VFNS_SPS_2017_13TeV/230726_145415/0000/Jpsi_9to30_Dstar_SPS_2017_13TeV_AOD_130.root\n'
p227
aS'root://xrootd-redir.ultralight.org:1094//store/group/uerj/mabarros/CRAB_PrivateMC_RunII_UL_SPS_2017/jpsi_ccbar_9to30_VFNS_SPS_2017_13TeV/230726_145415/0000/Jpsi_9to30_Dstar_SPS_2017_13TeV_AOD_131.root\n'
p228
aS'root://xrootd-redir.ultralight.org:1094//store/group/uerj/mabarros/CRAB_PrivateMC_RunII_UL_SPS_2017/jpsi_ccbar_9to30_VFNS_SPS_2017_13TeV/230726_145415/0000/Jpsi_9to30_Dstar_SPS_2017_13TeV_AOD_132.root\n'
p229
aS'root://xrootd-redir.ultralight.org:1094//store/group/uerj/mabarros/CRAB_PrivateMC_RunII_UL_SPS_2017/jpsi_ccbar_9to30_VFNS_SPS_2017_13TeV/230726_145415/0000/Jpsi_9to30_Dstar_SPS_2017_13TeV_AOD_133.root\n'
p230
aS'root://xrootd-redir.ultralight.org:1094//store/group/uerj/mabarros/CRAB_PrivateMC_RunII_UL_SPS_2017/jpsi_ccbar_9to30_VFNS_SPS_2017_13TeV/230726_145415/0000/Jpsi_9to30_Dstar_SPS_2017_13TeV_AOD_134.root\n'
p231
aS'root://xrootd-redir.ultralight.org:1094//store/group/uerj/mabarros/CRAB_PrivateMC_RunII_UL_SPS_2017/jpsi_ccbar_9to30_VFNS_SPS_2017_13TeV/230726_145415/0000/Jpsi_9to30_Dstar_SPS_2017_13TeV_AOD_135.root\n'
p232
aS'root://xrootd-redir.ultralight.org:1094//store/group/uerj/mabarros/CRAB_PrivateMC_RunII_UL_SPS_2017/jpsi_ccbar_9to30_VFNS_SPS_2017_13TeV/230726_145415/0000/Jpsi_9to30_Dstar_SPS_2017_13TeV_AOD_136.root\n'
p233
aS'root://xrootd-redir.ultralight.org:1094//store/group/uerj/mabarros/CRAB_PrivateMC_RunII_UL_SPS_2017/jpsi_ccbar_9to30_VFNS_SPS_2017_13TeV/230726_145415/0000/Jpsi_9to30_Dstar_SPS_2017_13TeV_AOD_137.root\n'
p234
aS'root://xrootd-redir.ultralight.org:1094//store/group/uerj/mabarros/CRAB_PrivateMC_RunII_UL_SPS_2017/jpsi_ccbar_9to30_VFNS_SPS_2017_13TeV/230726_145415/0000/Jpsi_9to30_Dstar_SPS_2017_13TeV_AOD_138.root\n'
p235
aS'root://xrootd-redir.ultralight.org:1094//store/group/uerj/mabarros/CRAB_PrivateMC_RunII_UL_SPS_2017/jpsi_ccbar_9to30_VFNS_SPS_2017_13TeV/230726_145415/0000/Jpsi_9to30_Dstar_SPS_2017_13TeV_AOD_139.root\n'
p236
aS'root://xrootd-redir.ultralight.org:1094//store/group/uerj/mabarros/CRAB_PrivateMC_RunII_UL_SPS_2017/jpsi_ccbar_9to30_VFNS_SPS_2017_13TeV/230726_145415/0000/Jpsi_9to30_Dstar_SPS_2017_13TeV_AOD_140.root\n'
p237
aS'root://xrootd-redir.ultralight.org:1094//store/group/uerj/mabarros/CRAB_PrivateMC_RunII_UL_SPS_2017/jpsi_ccbar_9to30_VFNS_SPS_2017_13TeV/230726_145415/0000/Jpsi_9to30_Dstar_SPS_2017_13TeV_AOD_141.root\n'
p238
aS'root://xrootd-redir.ultralight.org:1094//store/group/uerj/mabarros/CRAB_PrivateMC_RunII_UL_SPS_2017/jpsi_ccbar_9to30_VFNS_SPS_2017_13TeV/230726_145415/0000/Jpsi_9to30_Dstar_SPS_2017_13TeV_AOD_142.root\n'
p239
aS'root://xrootd-redir.ultralight.org:1094//store/group/uerj/mabarros/CRAB_PrivateMC_RunII_UL_SPS_2017/jpsi_ccbar_9to30_VFNS_SPS_2017_13TeV/230726_145415/0000/Jpsi_9to30_Dstar_SPS_2017_13TeV_AOD_143.root\n'
p240
aS'root://xrootd-redir.ultralight.org:1094//store/group/uerj/mabarros/CRAB_PrivateMC_RunII_UL_SPS_2017/jpsi_ccbar_9to30_VFNS_SPS_2017_13TeV/230726_145415/0000/Jpsi_9to30_Dstar_SPS_2017_13TeV_AOD_144.root\n'
p241
aS'root://xrootd-redir.ultralight.org:1094//store/group/uerj/mabarros/CRAB_PrivateMC_RunII_UL_SPS_2017/jpsi_ccbar_9to30_VFNS_SPS_2017_13TeV/230726_145415/0000/Jpsi_9to30_Dstar_SPS_2017_13TeV_AOD_145.root\n'
p242
aS'root://xrootd-redir.ultralight.org:1094//store/group/uerj/mabarros/CRAB_PrivateMC_RunII_UL_SPS_2017/jpsi_ccbar_9to30_VFNS_SPS_2017_13TeV/230726_145415/0000/Jpsi_9to30_Dstar_SPS_2017_13TeV_AOD_146.root\n'
p243
aS'root://xrootd-redir.ultralight.org:1094//store/group/uerj/mabarros/CRAB_PrivateMC_RunII_UL_SPS_2017/jpsi_ccbar_9to30_VFNS_SPS_2017_13TeV/230726_145415/0000/Jpsi_9to30_Dstar_SPS_2017_13TeV_AOD_147.root\n'
p244
aS'root://xrootd-redir.ultralight.org:1094//store/group/uerj/mabarros/CRAB_PrivateMC_RunII_UL_SPS_2017/jpsi_ccbar_9to30_VFNS_SPS_2017_13TeV/230726_145415/0000/Jpsi_9to30_Dstar_SPS_2017_13TeV_AOD_148.root\n'
p245
aS'root://xrootd-redir.ultralight.org:1094//store/group/uerj/mabarros/CRAB_PrivateMC_RunII_UL_SPS_2017/jpsi_ccbar_9to30_VFNS_SPS_2017_13TeV/230726_145415/0000/Jpsi_9to30_Dstar_SPS_2017_13TeV_AOD_149.root\n'
p246
aS'root://xrootd-redir.ultralight.org:1094//store/group/uerj/mabarros/CRAB_PrivateMC_RunII_UL_SPS_2017/jpsi_ccbar_9to30_VFNS_SPS_2017_13TeV/230726_145415/0000/Jpsi_9to30_Dstar_SPS_2017_13TeV_AOD_150.root\n'
p247
aS'root://xrootd-redir.ultralight.org:1094//store/group/uerj/mabarros/CRAB_PrivateMC_RunII_UL_SPS_2017/jpsi_ccbar_9to30_VFNS_SPS_2017_13TeV/230726_145415/0000/Jpsi_9to30_Dstar_SPS_2017_13TeV_AOD_151.root\n'
p248
aS'root://xrootd-redir.ultralight.org:1094//store/group/uerj/mabarros/CRAB_PrivateMC_RunII_UL_SPS_2017/jpsi_ccbar_9to30_VFNS_SPS_2017_13TeV/230726_145415/0000/Jpsi_9to30_Dstar_SPS_2017_13TeV_AOD_152.root\n'
p249
aS'root://xrootd-redir.ultralight.org:1094//store/group/uerj/mabarros/CRAB_PrivateMC_RunII_UL_SPS_2017/jpsi_ccbar_9to30_VFNS_SPS_2017_13TeV/230726_145415/0000/Jpsi_9to30_Dstar_SPS_2017_13TeV_AOD_153.root\n'
p250
aS'root://xrootd-redir.ultralight.org:1094//store/group/uerj/mabarros/CRAB_PrivateMC_RunII_UL_SPS_2017/jpsi_ccbar_9to30_VFNS_SPS_2017_13TeV/230726_145415/0000/Jpsi_9to30_Dstar_SPS_2017_13TeV_AOD_154.root\n'
p251
aS'root://xrootd-redir.ultralight.org:1094//store/group/uerj/mabarros/CRAB_PrivateMC_RunII_UL_SPS_2017/jpsi_ccbar_9to30_VFNS_SPS_2017_13TeV/230726_145415/0000/Jpsi_9to30_Dstar_SPS_2017_13TeV_AOD_155.root\n'
p252
aS'root://xrootd-redir.ultralight.org:1094//store/group/uerj/mabarros/CRAB_PrivateMC_RunII_UL_SPS_2017/jpsi_ccbar_9to30_VFNS_SPS_2017_13TeV/230726_145415/0000/Jpsi_9to30_Dstar_SPS_2017_13TeV_AOD_156.root\n'
p253
aS'root://xrootd-redir.ultralight.org:1094//store/group/uerj/mabarros/CRAB_PrivateMC_RunII_UL_SPS_2017/jpsi_ccbar_9to30_VFNS_SPS_2017_13TeV/230726_145415/0000/Jpsi_9to30_Dstar_SPS_2017_13TeV_AOD_157.root\n'
p254
aS'root://xrootd-redir.ultralight.org:1094//store/group/uerj/mabarros/CRAB_PrivateMC_RunII_UL_SPS_2017/jpsi_ccbar_9to30_VFNS_SPS_2017_13TeV/230726_145415/0000/Jpsi_9to30_Dstar_SPS_2017_13TeV_AOD_158.root\n'
p255
aS'root://xrootd-redir.ultralight.org:1094//store/group/uerj/mabarros/CRAB_PrivateMC_RunII_UL_SPS_2017/jpsi_ccbar_9to30_VFNS_SPS_2017_13TeV/230726_145415/0000/Jpsi_9to30_Dstar_SPS_2017_13TeV_AOD_159.root\n'
p256
aS'root://xrootd-redir.ultralight.org:1094//store/group/uerj/mabarros/CRAB_PrivateMC_RunII_UL_SPS_2017/jpsi_ccbar_9to30_VFNS_SPS_2017_13TeV/230726_145415/0000/Jpsi_9to30_Dstar_SPS_2017_13TeV_AOD_160.root\n'
p257
aS'root://xrootd-redir.ultralight.org:1094//store/group/uerj/mabarros/CRAB_PrivateMC_RunII_UL_SPS_2017/jpsi_ccbar_9to30_VFNS_SPS_2017_13TeV/230726_145415/0000/Jpsi_9to30_Dstar_SPS_2017_13TeV_AOD_161.root\n'
p258
aS'root://xrootd-redir.ultralight.org:1094//store/group/uerj/mabarros/CRAB_PrivateMC_RunII_UL_SPS_2017/jpsi_ccbar_9to30_VFNS_SPS_2017_13TeV/230726_145415/0000/Jpsi_9to30_Dstar_SPS_2017_13TeV_AOD_162.root\n'
p259
aS'root://xrootd-redir.ultralight.org:1094//store/group/uerj/mabarros/CRAB_PrivateMC_RunII_UL_SPS_2017/jpsi_ccbar_9to30_VFNS_SPS_2017_13TeV/230726_145415/0000/Jpsi_9to30_Dstar_SPS_2017_13TeV_AOD_163.root\n'
p260
aS'root://xrootd-redir.ultralight.org:1094//store/group/uerj/mabarros/CRAB_PrivateMC_RunII_UL_SPS_2017/jpsi_ccbar_9to30_VFNS_SPS_2017_13TeV/230726_145415/0000/Jpsi_9to30_Dstar_SPS_2017_13TeV_AOD_164.root\n'
p261
aS'root://xrootd-redir.ultralight.org:1094//store/group/uerj/mabarros/CRAB_PrivateMC_RunII_UL_SPS_2017/jpsi_ccbar_9to30_VFNS_SPS_2017_13TeV/230726_145415/0000/Jpsi_9to30_Dstar_SPS_2017_13TeV_AOD_165.root\n'
p262
aS'root://xrootd-redir.ultralight.org:1094//store/group/uerj/mabarros/CRAB_PrivateMC_RunII_UL_SPS_2017/jpsi_ccbar_9to30_VFNS_SPS_2017_13TeV/230726_145415/0000/Jpsi_9to30_Dstar_SPS_2017_13TeV_AOD_167.root\n'
p263
aS'root://xrootd-redir.ultralight.org:1094//store/group/uerj/mabarros/CRAB_PrivateMC_RunII_UL_SPS_2017/jpsi_ccbar_9to30_VFNS_SPS_2017_13TeV/230726_145415/0000/Jpsi_9to30_Dstar_SPS_2017_13TeV_AOD_168.root\n'
p264
aS'root://xrootd-redir.ultralight.org:1094//store/group/uerj/mabarros/CRAB_PrivateMC_RunII_UL_SPS_2017/jpsi_ccbar_9to30_VFNS_SPS_2017_13TeV/230726_145415/0000/Jpsi_9to30_Dstar_SPS_2017_13TeV_AOD_169.root\n'
p265
aS'root://xrootd-redir.ultralight.org:1094//store/group/uerj/mabarros/CRAB_PrivateMC_RunII_UL_SPS_2017/jpsi_ccbar_9to30_VFNS_SPS_2017_13TeV/230726_145415/0000/Jpsi_9to30_Dstar_SPS_2017_13TeV_AOD_170.root\n'
p266
aS'root://xrootd-redir.ultralight.org:1094//store/group/uerj/mabarros/CRAB_PrivateMC_RunII_UL_SPS_2017/jpsi_ccbar_9to30_VFNS_SPS_2017_13TeV/230726_145415/0000/Jpsi_9to30_Dstar_SPS_2017_13TeV_AOD_171.root\n'
p267
aS'root://xrootd-redir.ultralight.org:1094//store/group/uerj/mabarros/CRAB_PrivateMC_RunII_UL_SPS_2017/jpsi_ccbar_9to30_VFNS_SPS_2017_13TeV/230726_145415/0000/Jpsi_9to30_Dstar_SPS_2017_13TeV_AOD_172.root\n'
p268
aS'root://xrootd-redir.ultralight.org:1094//store/group/uerj/mabarros/CRAB_PrivateMC_RunII_UL_SPS_2017/jpsi_ccbar_9to30_VFNS_SPS_2017_13TeV/230726_145415/0000/Jpsi_9to30_Dstar_SPS_2017_13TeV_AOD_173.root\n'
p269
aS'root://xrootd-redir.ultralight.org:1094//store/group/uerj/mabarros/CRAB_PrivateMC_RunII_UL_SPS_2017/jpsi_ccbar_9to30_VFNS_SPS_2017_13TeV/230726_145415/0000/Jpsi_9to30_Dstar_SPS_2017_13TeV_AOD_174.root\n'
p270
aS'root://xrootd-redir.ultralight.org:1094//store/group/uerj/mabarros/CRAB_PrivateMC_RunII_UL_SPS_2017/jpsi_ccbar_9to30_VFNS_SPS_2017_13TeV/230726_145415/0000/Jpsi_9to30_Dstar_SPS_2017_13TeV_AOD_175.root\n'
p271
aS'root://xrootd-redir.ultralight.org:1094//store/group/uerj/mabarros/CRAB_PrivateMC_RunII_UL_SPS_2017/jpsi_ccbar_9to30_VFNS_SPS_2017_13TeV/230726_145415/0000/Jpsi_9to30_Dstar_SPS_2017_13TeV_AOD_176.root\n'
p272
aS'root://xrootd-redir.ultralight.org:1094//store/group/uerj/mabarros/CRAB_PrivateMC_RunII_UL_SPS_2017/jpsi_ccbar_9to30_VFNS_SPS_2017_13TeV/230726_145415/0000/Jpsi_9to30_Dstar_SPS_2017_13TeV_AOD_177.root\n'
p273
aS'root://xrootd-redir.ultralight.org:1094//store/group/uerj/mabarros/CRAB_PrivateMC_RunII_UL_SPS_2017/jpsi_ccbar_9to30_VFNS_SPS_2017_13TeV/230726_145415/0000/Jpsi_9to30_Dstar_SPS_2017_13TeV_AOD_178.root\n'
p274
aS'root://xrootd-redir.ultralight.org:1094//store/group/uerj/mabarros/CRAB_PrivateMC_RunII_UL_SPS_2017/jpsi_ccbar_9to30_VFNS_SPS_2017_13TeV/230726_145415/0000/Jpsi_9to30_Dstar_SPS_2017_13TeV_AOD_179.root\n'
p275
aS'root://xrootd-redir.ultralight.org:1094//store/group/uerj/mabarros/CRAB_PrivateMC_RunII_UL_SPS_2017/jpsi_ccbar_9to30_VFNS_SPS_2017_13TeV/230726_145415/0000/Jpsi_9to30_Dstar_SPS_2017_13TeV_AOD_180.root\n'
p276
aS'root://xrootd-redir.ultralight.org:1094//store/group/uerj/mabarros/CRAB_PrivateMC_RunII_UL_SPS_2017/jpsi_ccbar_9to30_VFNS_SPS_2017_13TeV/230726_145415/0000/Jpsi_9to30_Dstar_SPS_2017_13TeV_AOD_181.root\n'
p277
aS'root://xrootd-redir.ultralight.org:1094//store/group/uerj/mabarros/CRAB_PrivateMC_RunII_UL_SPS_2017/jpsi_ccbar_9to30_VFNS_SPS_2017_13TeV/230726_145415/0000/Jpsi_9to30_Dstar_SPS_2017_13TeV_AOD_182.root\n'
p278
aS'root://xrootd-redir.ultralight.org:1094//store/group/uerj/mabarros/CRAB_PrivateMC_RunII_UL_SPS_2017/jpsi_ccbar_9to30_VFNS_SPS_2017_13TeV/230726_145415/0000/Jpsi_9to30_Dstar_SPS_2017_13TeV_AOD_183.root\n'
p279
aS'root://xrootd-redir.ultralight.org:1094//store/group/uerj/mabarros/CRAB_PrivateMC_RunII_UL_SPS_2017/jpsi_ccbar_9to30_VFNS_SPS_2017_13TeV/230726_145415/0000/Jpsi_9to30_Dstar_SPS_2017_13TeV_AOD_184.root\n'
p280
aS'root://xrootd-redir.ultralight.org:1094//store/group/uerj/mabarros/CRAB_PrivateMC_RunII_UL_SPS_2017/jpsi_ccbar_9to30_VFNS_SPS_2017_13TeV/230726_145415/0000/Jpsi_9to30_Dstar_SPS_2017_13TeV_AOD_185.root\n'
p281
aS'root://xrootd-redir.ultralight.org:1094//store/group/uerj/mabarros/CRAB_PrivateMC_RunII_UL_SPS_2017/jpsi_ccbar_9to30_VFNS_SPS_2017_13TeV/230726_145415/0000/Jpsi_9to30_Dstar_SPS_2017_13TeV_AOD_186.root\n'
p282
aS'root://xrootd-redir.ultralight.org:1094//store/group/uerj/mabarros/CRAB_PrivateMC_RunII_UL_SPS_2017/jpsi_ccbar_9to30_VFNS_SPS_2017_13TeV/230726_145415/0000/Jpsi_9to30_Dstar_SPS_2017_13TeV_AOD_187.root\n'
p283
aS'root://xrootd-redir.ultralight.org:1094//store/group/uerj/mabarros/CRAB_PrivateMC_RunII_UL_SPS_2017/jpsi_ccbar_9to30_VFNS_SPS_2017_13TeV/230726_145415/0000/Jpsi_9to30_Dstar_SPS_2017_13TeV_AOD_188.root\n'
p284
aS'root://xrootd-redir.ultralight.org:1094//store/group/uerj/mabarros/CRAB_PrivateMC_RunII_UL_SPS_2017/jpsi_ccbar_9to30_VFNS_SPS_2017_13TeV/230726_145415/0000/Jpsi_9to30_Dstar_SPS_2017_13TeV_AOD_189.root\n'
p285
aS'root://xrootd-redir.ultralight.org:1094//store/group/uerj/mabarros/CRAB_PrivateMC_RunII_UL_SPS_2017/jpsi_ccbar_9to30_VFNS_SPS_2017_13TeV/230726_145415/0000/Jpsi_9to30_Dstar_SPS_2017_13TeV_AOD_190.root\n'
p286
aS'root://xrootd-redir.ultralight.org:1094//store/group/uerj/mabarros/CRAB_PrivateMC_RunII_UL_SPS_2017/jpsi_ccbar_9to30_VFNS_SPS_2017_13TeV/230726_145415/0000/Jpsi_9to30_Dstar_SPS_2017_13TeV_AOD_191.root\n'
p287
aS'root://xrootd-redir.ultralight.org:1094//store/group/uerj/mabarros/CRAB_PrivateMC_RunII_UL_SPS_2017/jpsi_ccbar_9to30_VFNS_SPS_2017_13TeV/230726_145415/0000/Jpsi_9to30_Dstar_SPS_2017_13TeV_AOD_192.root\n'
p288
aS'root://xrootd-redir.ultralight.org:1094//store/group/uerj/mabarros/CRAB_PrivateMC_RunII_UL_SPS_2017/jpsi_ccbar_9to30_VFNS_SPS_2017_13TeV/230726_145415/0000/Jpsi_9to30_Dstar_SPS_2017_13TeV_AOD_193.root\n'
p289
aS'root://xrootd-redir.ultralight.org:1094//store/group/uerj/mabarros/CRAB_PrivateMC_RunII_UL_SPS_2017/jpsi_ccbar_9to30_VFNS_SPS_2017_13TeV/230726_145415/0000/Jpsi_9to30_Dstar_SPS_2017_13TeV_AOD_194.root\n'
p290
aS'root://xrootd-redir.ultralight.org:1094//store/group/uerj/mabarros/CRAB_PrivateMC_RunII_UL_SPS_2017/jpsi_ccbar_9to30_VFNS_SPS_2017_13TeV/230726_145415/0000/Jpsi_9to30_Dstar_SPS_2017_13TeV_AOD_195.root\n'
p291
aS'root://xrootd-redir.ultralight.org:1094//store/group/uerj/mabarros/CRAB_PrivateMC_RunII_UL_SPS_2017/jpsi_ccbar_9to30_VFNS_SPS_2017_13TeV/230726_145415/0000/Jpsi_9to30_Dstar_SPS_2017_13TeV_AOD_196.root\n'
p292
aS'root://xrootd-redir.ultralight.org:1094//store/group/uerj/mabarros/CRAB_PrivateMC_RunII_UL_SPS_2017/jpsi_ccbar_9to30_VFNS_SPS_2017_13TeV/230726_145415/0000/Jpsi_9to30_Dstar_SPS_2017_13TeV_AOD_197.root\n'
p293
aS'root://xrootd-redir.ultralight.org:1094//store/group/uerj/mabarros/CRAB_PrivateMC_RunII_UL_SPS_2017/jpsi_ccbar_9to30_VFNS_SPS_2017_13TeV/230726_145415/0000/Jpsi_9to30_Dstar_SPS_2017_13TeV_AOD_198.root\n'
p294
aS'root://xrootd-redir.ultralight.org:1094//store/group/uerj/mabarros/CRAB_PrivateMC_RunII_UL_SPS_2017/jpsi_ccbar_9to30_VFNS_SPS_2017_13TeV/230726_145415/0000/Jpsi_9to30_Dstar_SPS_2017_13TeV_AOD_199.root\n'
p295
aS'root://xrootd-redir.ultralight.org:1094//store/group/uerj/mabarros/CRAB_PrivateMC_RunII_UL_SPS_2017/jpsi_ccbar_9to30_VFNS_SPS_2017_13TeV/230726_145415/0000/Jpsi_9to30_Dstar_SPS_2017_13TeV_AOD_200.root\n'
p296
aS'root://xrootd-redir.ultralight.org:1094//store/group/uerj/mabarros/CRAB_PrivateMC_RunII_UL_SPS_2017/jpsi_ccbar_9to30_VFNS_SPS_2017_13TeV/230726_145415/0000/Jpsi_9to30_Dstar_SPS_2017_13TeV_AOD_201.root\n'
p297
aS'root://xrootd-redir.ultralight.org:1094//store/group/uerj/mabarros/CRAB_PrivateMC_RunII_UL_SPS_2017/jpsi_ccbar_9to30_VFNS_SPS_2017_13TeV/230726_145415/0000/Jpsi_9to30_Dstar_SPS_2017_13TeV_AOD_202.root\n'
p298
aS'root://xrootd-redir.ultralight.org:1094//store/group/uerj/mabarros/CRAB_PrivateMC_RunII_UL_SPS_2017/jpsi_ccbar_9to30_VFNS_SPS_2017_13TeV/230726_145415/0000/Jpsi_9to30_Dstar_SPS_2017_13TeV_AOD_203.root\n'
p299
aS'root://xrootd-redir.ultralight.org:1094//store/group/uerj/mabarros/CRAB_PrivateMC_RunII_UL_SPS_2017/jpsi_ccbar_9to30_VFNS_SPS_2017_13TeV/230726_145415/0000/Jpsi_9to30_Dstar_SPS_2017_13TeV_AOD_204.root\n'
p300
aS'root://xrootd-redir.ultralight.org:1094//store/group/uerj/mabarros/CRAB_PrivateMC_RunII_UL_SPS_2017/jpsi_ccbar_9to30_VFNS_SPS_2017_13TeV/230726_145415/0000/Jpsi_9to30_Dstar_SPS_2017_13TeV_AOD_205.root\n'
p301
aS'root://xrootd-redir.ultralight.org:1094//store/group/uerj/mabarros/CRAB_PrivateMC_RunII_UL_SPS_2017/jpsi_ccbar_9to30_VFNS_SPS_2017_13TeV/230726_145415/0000/Jpsi_9to30_Dstar_SPS_2017_13TeV_AOD_206.root\n'
p302
aS'root://xrootd-redir.ultralight.org:1094//store/group/uerj/mabarros/CRAB_PrivateMC_RunII_UL_SPS_2017/jpsi_ccbar_9to30_VFNS_SPS_2017_13TeV/230726_145415/0000/Jpsi_9to30_Dstar_SPS_2017_13TeV_AOD_207.root\n'
p303
aS'root://xrootd-redir.ultralight.org:1094//store/group/uerj/mabarros/CRAB_PrivateMC_RunII_UL_SPS_2017/jpsi_ccbar_9to30_VFNS_SPS_2017_13TeV/230726_145415/0000/Jpsi_9to30_Dstar_SPS_2017_13TeV_AOD_208.root\n'
p304
aS'root://xrootd-redir.ultralight.org:1094//store/group/uerj/mabarros/CRAB_PrivateMC_RunII_UL_SPS_2017/jpsi_ccbar_9to30_VFNS_SPS_2017_13TeV/230726_145415/0000/Jpsi_9to30_Dstar_SPS_2017_13TeV_AOD_209.root\n'
p305
aS'root://xrootd-redir.ultralight.org:1094//store/group/uerj/mabarros/CRAB_PrivateMC_RunII_UL_SPS_2017/jpsi_ccbar_9to30_VFNS_SPS_2017_13TeV/230726_145415/0000/Jpsi_9to30_Dstar_SPS_2017_13TeV_AOD_210.root\n'
p306
aS'root://xrootd-redir.ultralight.org:1094//store/group/uerj/mabarros/CRAB_PrivateMC_RunII_UL_SPS_2017/jpsi_ccbar_9to30_VFNS_SPS_2017_13TeV/230726_145415/0000/Jpsi_9to30_Dstar_SPS_2017_13TeV_AOD_211.root\n'
p307
aS'root://xrootd-redir.ultralight.org:1094//store/group/uerj/mabarros/CRAB_PrivateMC_RunII_UL_SPS_2017/jpsi_ccbar_9to30_VFNS_SPS_2017_13TeV/230726_145415/0000/Jpsi_9to30_Dstar_SPS_2017_13TeV_AOD_212.root\n'
p308
aS'root://xrootd-redir.ultralight.org:1094//store/group/uerj/mabarros/CRAB_PrivateMC_RunII_UL_SPS_2017/jpsi_ccbar_9to30_VFNS_SPS_2017_13TeV/230726_145415/0000/Jpsi_9to30_Dstar_SPS_2017_13TeV_AOD_213.root\n'
p309
aS'root://xrootd-redir.ultralight.org:1094//store/group/uerj/mabarros/CRAB_PrivateMC_RunII_UL_SPS_2017/jpsi_ccbar_9to30_VFNS_SPS_2017_13TeV/230726_145415/0000/Jpsi_9to30_Dstar_SPS_2017_13TeV_AOD_214.root\n'
p310
aS'root://xrootd-redir.ultralight.org:1094//store/group/uerj/mabarros/CRAB_PrivateMC_RunII_UL_SPS_2017/jpsi_ccbar_9to30_VFNS_SPS_2017_13TeV/230726_145415/0000/Jpsi_9to30_Dstar_SPS_2017_13TeV_AOD_215.root\n'
p311
aS'root://xrootd-redir.ultralight.org:1094//store/group/uerj/mabarros/CRAB_PrivateMC_RunII_UL_SPS_2017/jpsi_ccbar_9to30_VFNS_SPS_2017_13TeV/230726_145415/0000/Jpsi_9to30_Dstar_SPS_2017_13TeV_AOD_216.root\n'
p312
aS'root://xrootd-redir.ultralight.org:1094//store/group/uerj/mabarros/CRAB_PrivateMC_RunII_UL_SPS_2017/jpsi_ccbar_9to30_VFNS_SPS_2017_13TeV/230726_145415/0000/Jpsi_9to30_Dstar_SPS_2017_13TeV_AOD_217.root\n'
p313
aS'root://xrootd-redir.ultralight.org:1094//store/group/uerj/mabarros/CRAB_PrivateMC_RunII_UL_SPS_2017/jpsi_ccbar_9to30_VFNS_SPS_2017_13TeV/230726_145415/0000/Jpsi_9to30_Dstar_SPS_2017_13TeV_AOD_218.root\n'
p314
aS'root://xrootd-redir.ultralight.org:1094//store/group/uerj/mabarros/CRAB_PrivateMC_RunII_UL_SPS_2017/jpsi_ccbar_9to30_VFNS_SPS_2017_13TeV/230726_145415/0000/Jpsi_9to30_Dstar_SPS_2017_13TeV_AOD_219.root\n'
p315
aS'root://xrootd-redir.ultralight.org:1094//store/group/uerj/mabarros/CRAB_PrivateMC_RunII_UL_SPS_2017/jpsi_ccbar_9to30_VFNS_SPS_2017_13TeV/230726_145415/0000/Jpsi_9to30_Dstar_SPS_2017_13TeV_AOD_220.root\n'
p316
aS'root://xrootd-redir.ultralight.org:1094//store/group/uerj/mabarros/CRAB_PrivateMC_RunII_UL_SPS_2017/jpsi_ccbar_9to30_VFNS_SPS_2017_13TeV/230726_145415/0000/Jpsi_9to30_Dstar_SPS_2017_13TeV_AOD_221.root\n'
p317
aS'root://xrootd-redir.ultralight.org:1094//store/group/uerj/mabarros/CRAB_PrivateMC_RunII_UL_SPS_2017/jpsi_ccbar_9to30_VFNS_SPS_2017_13TeV/230726_145415/0000/Jpsi_9to30_Dstar_SPS_2017_13TeV_AOD_222.root\n'
p318
aS'root://xrootd-redir.ultralight.org:1094//store/group/uerj/mabarros/CRAB_PrivateMC_RunII_UL_SPS_2017/jpsi_ccbar_9to30_VFNS_SPS_2017_13TeV/230726_145415/0000/Jpsi_9to30_Dstar_SPS_2017_13TeV_AOD_223.root\n'
p319
aS'root://xrootd-redir.ultralight.org:1094//store/group/uerj/mabarros/CRAB_PrivateMC_RunII_UL_SPS_2017/jpsi_ccbar_9to30_VFNS_SPS_2017_13TeV/230726_145415/0000/Jpsi_9to30_Dstar_SPS_2017_13TeV_AOD_224.root\n'
p320
aS'root://xrootd-redir.ultralight.org:1094//store/group/uerj/mabarros/CRAB_PrivateMC_RunII_UL_SPS_2017/jpsi_ccbar_9to30_VFNS_SPS_2017_13TeV/230726_145415/0000/Jpsi_9to30_Dstar_SPS_2017_13TeV_AOD_225.root\n'
p321
aS'root://xrootd-redir.ultralight.org:1094//store/group/uerj/mabarros/CRAB_PrivateMC_RunII_UL_SPS_2017/jpsi_ccbar_9to30_VFNS_SPS_2017_13TeV/230726_145415/0000/Jpsi_9to30_Dstar_SPS_2017_13TeV_AOD_226.root\n'
p322
aS'root://xrootd-redir.ultralight.org:1094//store/group/uerj/mabarros/CRAB_PrivateMC_RunII_UL_SPS_2017/jpsi_ccbar_9to30_VFNS_SPS_2017_13TeV/230726_145415/0000/Jpsi_9to30_Dstar_SPS_2017_13TeV_AOD_227.root\n'
p323
aS'root://xrootd-redir.ultralight.org:1094//store/group/uerj/mabarros/CRAB_PrivateMC_RunII_UL_SPS_2017/jpsi_ccbar_9to30_VFNS_SPS_2017_13TeV/230726_145415/0000/Jpsi_9to30_Dstar_SPS_2017_13TeV_AOD_228.root\n'
p324
aS'root://xrootd-redir.ultralight.org:1094//store/group/uerj/mabarros/CRAB_PrivateMC_RunII_UL_SPS_2017/jpsi_ccbar_9to30_VFNS_SPS_2017_13TeV/230726_145415/0000/Jpsi_9to30_Dstar_SPS_2017_13TeV_AOD_229.root\n'
p325
aS'root://xrootd-redir.ultralight.org:1094//store/group/uerj/mabarros/CRAB_PrivateMC_RunII_UL_SPS_2017/jpsi_ccbar_9to30_VFNS_SPS_2017_13TeV/230726_145415/0000/Jpsi_9to30_Dstar_SPS_2017_13TeV_AOD_230.root\n'
p326
aS'root://xrootd-redir.ultralight.org:1094//store/group/uerj/mabarros/CRAB_PrivateMC_RunII_UL_SPS_2017/jpsi_ccbar_9to30_VFNS_SPS_2017_13TeV/230726_145415/0000/Jpsi_9to30_Dstar_SPS_2017_13TeV_AOD_231.root\n'
p327
aS'root://xrootd-redir.ultralight.org:1094//store/group/uerj/mabarros/CRAB_PrivateMC_RunII_UL_SPS_2017/jpsi_ccbar_9to30_VFNS_SPS_2017_13TeV/230726_145415/0000/Jpsi_9to30_Dstar_SPS_2017_13TeV_AOD_232.root\n'
p328
aS'root://xrootd-redir.ultralight.org:1094//store/group/uerj/mabarros/CRAB_PrivateMC_RunII_UL_SPS_2017/jpsi_ccbar_9to30_VFNS_SPS_2017_13TeV/230726_145415/0000/Jpsi_9to30_Dstar_SPS_2017_13TeV_AOD_233.root\n'
p329
aS'root://xrootd-redir.ultralight.org:1094//store/group/uerj/mabarros/CRAB_PrivateMC_RunII_UL_SPS_2017/jpsi_ccbar_9to30_VFNS_SPS_2017_13TeV/230726_145415/0000/Jpsi_9to30_Dstar_SPS_2017_13TeV_AOD_234.root\n'
p330
aS'root://xrootd-redir.ultralight.org:1094//store/group/uerj/mabarros/CRAB_PrivateMC_RunII_UL_SPS_2017/jpsi_ccbar_9to30_VFNS_SPS_2017_13TeV/230726_145415/0000/Jpsi_9to30_Dstar_SPS_2017_13TeV_AOD_235.root\n'
p331
aS'root://xrootd-redir.ultralight.org:1094//store/group/uerj/mabarros/CRAB_PrivateMC_RunII_UL_SPS_2017/jpsi_ccbar_9to30_VFNS_SPS_2017_13TeV/230726_145415/0000/Jpsi_9to30_Dstar_SPS_2017_13TeV_AOD_236.root\n'
p332
aS'root://xrootd-redir.ultralight.org:1094//store/group/uerj/mabarros/CRAB_PrivateMC_RunII_UL_SPS_2017/jpsi_ccbar_9to30_VFNS_SPS_2017_13TeV/230726_145415/0000/Jpsi_9to30_Dstar_SPS_2017_13TeV_AOD_237.root\n'
p333
aS'root://xrootd-redir.ultralight.org:1094//store/group/uerj/mabarros/CRAB_PrivateMC_RunII_UL_SPS_2017/jpsi_ccbar_9to30_VFNS_SPS_2017_13TeV/230726_145415/0000/Jpsi_9to30_Dstar_SPS_2017_13TeV_AOD_238.root\n'
p334
aS'root://xrootd-redir.ultralight.org:1094//store/group/uerj/mabarros/CRAB_PrivateMC_RunII_UL_SPS_2017/jpsi_ccbar_9to30_VFNS_SPS_2017_13TeV/230726_145415/0000/Jpsi_9to30_Dstar_SPS_2017_13TeV_AOD_239.root\n'
p335
aS'root://xrootd-redir.ultralight.org:1094//store/group/uerj/mabarros/CRAB_PrivateMC_RunII_UL_SPS_2017/jpsi_ccbar_9to30_VFNS_SPS_2017_13TeV/230726_145415/0000/Jpsi_9to30_Dstar_SPS_2017_13TeV_AOD_240.root\n'
p336
aS'root://xrootd-redir.ultralight.org:1094//store/group/uerj/mabarros/CRAB_PrivateMC_RunII_UL_SPS_2017/jpsi_ccbar_9to30_VFNS_SPS_2017_13TeV/230726_145415/0000/Jpsi_9to30_Dstar_SPS_2017_13TeV_AOD_241.root\n'
p337
aS'root://xrootd-redir.ultralight.org:1094//store/group/uerj/mabarros/CRAB_PrivateMC_RunII_UL_SPS_2017/jpsi_ccbar_9to30_VFNS_SPS_2017_13TeV/230726_145415/0000/Jpsi_9to30_Dstar_SPS_2017_13TeV_AOD_242.root\n'
p338
aS'root://xrootd-redir.ultralight.org:1094//store/group/uerj/mabarros/CRAB_PrivateMC_RunII_UL_SPS_2017/jpsi_ccbar_9to30_VFNS_SPS_2017_13TeV/230726_145415/0000/Jpsi_9to30_Dstar_SPS_2017_13TeV_AOD_243.root\n'
p339
aS'root://xrootd-redir.ultralight.org:1094//store/group/uerj/mabarros/CRAB_PrivateMC_RunII_UL_SPS_2017/jpsi_ccbar_9to30_VFNS_SPS_2017_13TeV/230726_145415/0000/Jpsi_9to30_Dstar_SPS_2017_13TeV_AOD_244.root\n'
p340
aS'root://xrootd-redir.ultralight.org:1094//store/group/uerj/mabarros/CRAB_PrivateMC_RunII_UL_SPS_2017/jpsi_ccbar_9to30_VFNS_SPS_2017_13TeV/230726_145415/0000/Jpsi_9to30_Dstar_SPS_2017_13TeV_AOD_245.root\n'
p341
aS'root://xrootd-redir.ultralight.org:1094//store/group/uerj/mabarros/CRAB_PrivateMC_RunII_UL_SPS_2017/jpsi_ccbar_9to30_VFNS_SPS_2017_13TeV/230726_145415/0000/Jpsi_9to30_Dstar_SPS_2017_13TeV_AOD_246.root\n'
p342
aS'root://xrootd-redir.ultralight.org:1094//store/group/uerj/mabarros/CRAB_PrivateMC_RunII_UL_SPS_2017/jpsi_ccbar_9to30_VFNS_SPS_2017_13TeV/230726_145415/0000/Jpsi_9to30_Dstar_SPS_2017_13TeV_AOD_247.root\n'
p343
aS'root://xrootd-redir.ultralight.org:1094//store/group/uerj/mabarros/CRAB_PrivateMC_RunII_UL_SPS_2017/jpsi_ccbar_9to30_VFNS_SPS_2017_13TeV/230726_145415/0000/Jpsi_9to30_Dstar_SPS_2017_13TeV_AOD_248.root\n'
p344
aS'root://xrootd-redir.ultralight.org:1094//store/group/uerj/mabarros/CRAB_PrivateMC_RunII_UL_SPS_2017/jpsi_ccbar_9to30_VFNS_SPS_2017_13TeV/230726_145415/0000/Jpsi_9to30_Dstar_SPS_2017_13TeV_AOD_249.root\n'
p345
aS'root://xrootd-redir.ultralight.org:1094//store/group/uerj/mabarros/CRAB_PrivateMC_RunII_UL_SPS_2017/jpsi_ccbar_9to30_VFNS_SPS_2017_13TeV/230726_145415/0000/Jpsi_9to30_Dstar_SPS_2017_13TeV_AOD_250.root\n'
p346
aS'root://xrootd-redir.ultralight.org:1094//store/group/uerj/mabarros/CRAB_PrivateMC_RunII_UL_SPS_2017/jpsi_ccbar_9to30_VFNS_SPS_2017_13TeV/230726_145415/0000/Jpsi_9to30_Dstar_SPS_2017_13TeV_AOD_251.root\n'
p347
aS'root://xrootd-redir.ultralight.org:1094//store/group/uerj/mabarros/CRAB_PrivateMC_RunII_UL_SPS_2017/jpsi_ccbar_9to30_VFNS_SPS_2017_13TeV/230726_145415/0000/Jpsi_9to30_Dstar_SPS_2017_13TeV_AOD_252.root\n'
p348
aS'root://xrootd-redir.ultralight.org:1094//store/group/uerj/mabarros/CRAB_PrivateMC_RunII_UL_SPS_2017/jpsi_ccbar_9to30_VFNS_SPS_2017_13TeV/230726_145415/0000/Jpsi_9to30_Dstar_SPS_2017_13TeV_AOD_253.root\n'
p349
aS'root://xrootd-redir.ultralight.org:1094//store/group/uerj/mabarros/CRAB_PrivateMC_RunII_UL_SPS_2017/jpsi_ccbar_9to30_VFNS_SPS_2017_13TeV/230726_145415/0000/Jpsi_9to30_Dstar_SPS_2017_13TeV_AOD_254.root\n'
p350
aS'root://xrootd-redir.ultralight.org:1094//store/group/uerj/mabarros/CRAB_PrivateMC_RunII_UL_SPS_2017/jpsi_ccbar_9to30_VFNS_SPS_2017_13TeV/230726_145415/0000/Jpsi_9to30_Dstar_SPS_2017_13TeV_AOD_255.root\n'
p351
aS'root://xrootd-redir.ultralight.org:1094//store/group/uerj/mabarros/CRAB_PrivateMC_RunII_UL_SPS_2017/jpsi_ccbar_9to30_VFNS_SPS_2017_13TeV/230726_145415/0000/Jpsi_9to30_Dstar_SPS_2017_13TeV_AOD_256.root\n'
p352
aS'root://xrootd-redir.ultralight.org:1094//store/group/uerj/mabarros/CRAB_PrivateMC_RunII_UL_SPS_2017/jpsi_ccbar_9to30_VFNS_SPS_2017_13TeV/230726_145415/0000/Jpsi_9to30_Dstar_SPS_2017_13TeV_AOD_257.root\n'
p353
aS'root://xrootd-redir.ultralight.org:1094//store/group/uerj/mabarros/CRAB_PrivateMC_RunII_UL_SPS_2017/jpsi_ccbar_9to30_VFNS_SPS_2017_13TeV/230726_145415/0000/Jpsi_9to30_Dstar_SPS_2017_13TeV_AOD_258.root\n'
p354
aS'root://xrootd-redir.ultralight.org:1094//store/group/uerj/mabarros/CRAB_PrivateMC_RunII_UL_SPS_2017/jpsi_ccbar_9to30_VFNS_SPS_2017_13TeV/230726_145415/0000/Jpsi_9to30_Dstar_SPS_2017_13TeV_AOD_259.root\n'
p355
aS'root://xrootd-redir.ultralight.org:1094//store/group/uerj/mabarros/CRAB_PrivateMC_RunII_UL_SPS_2017/jpsi_ccbar_9to30_VFNS_SPS_2017_13TeV/230726_145415/0000/Jpsi_9to30_Dstar_SPS_2017_13TeV_AOD_260.root\n'
p356
aS'root://xrootd-redir.ultralight.org:1094//store/group/uerj/mabarros/CRAB_PrivateMC_RunII_UL_SPS_2017/jpsi_ccbar_9to30_VFNS_SPS_2017_13TeV/230726_145415/0000/Jpsi_9to30_Dstar_SPS_2017_13TeV_AOD_261.root\n'
p357
aS'root://xrootd-redir.ultralight.org:1094//store/group/uerj/mabarros/CRAB_PrivateMC_RunII_UL_SPS_2017/jpsi_ccbar_9to30_VFNS_SPS_2017_13TeV/230726_145415/0000/Jpsi_9to30_Dstar_SPS_2017_13TeV_AOD_262.root\n'
p358
aS'root://xrootd-redir.ultralight.org:1094//store/group/uerj/mabarros/CRAB_PrivateMC_RunII_UL_SPS_2017/jpsi_ccbar_9to30_VFNS_SPS_2017_13TeV/230726_145415/0000/Jpsi_9to30_Dstar_SPS_2017_13TeV_AOD_263.root\n'
p359
aS'root://xrootd-redir.ultralight.org:1094//store/group/uerj/mabarros/CRAB_PrivateMC_RunII_UL_SPS_2017/jpsi_ccbar_9to30_VFNS_SPS_2017_13TeV/230726_145415/0000/Jpsi_9to30_Dstar_SPS_2017_13TeV_AOD_264.root\n'
p360
aS'root://xrootd-redir.ultralight.org:1094//store/group/uerj/mabarros/CRAB_PrivateMC_RunII_UL_SPS_2017/jpsi_ccbar_9to30_VFNS_SPS_2017_13TeV/230726_145415/0000/Jpsi_9to30_Dstar_SPS_2017_13TeV_AOD_265.root\n'
p361
aS'root://xrootd-redir.ultralight.org:1094//store/group/uerj/mabarros/CRAB_PrivateMC_RunII_UL_SPS_2017/jpsi_ccbar_9to30_VFNS_SPS_2017_13TeV/230726_145415/0000/Jpsi_9to30_Dstar_SPS_2017_13TeV_AOD_266.root\n'
p362
aS'root://xrootd-redir.ultralight.org:1094//store/group/uerj/mabarros/CRAB_PrivateMC_RunII_UL_SPS_2017/jpsi_ccbar_9to30_VFNS_SPS_2017_13TeV/230726_145415/0000/Jpsi_9to30_Dstar_SPS_2017_13TeV_AOD_267.root\n'
p363
aS'root://xrootd-redir.ultralight.org:1094//store/group/uerj/mabarros/CRAB_PrivateMC_RunII_UL_SPS_2017/jpsi_ccbar_9to30_VFNS_SPS_2017_13TeV/230726_145415/0000/Jpsi_9to30_Dstar_SPS_2017_13TeV_AOD_268.root\n'
p364
aS'root://xrootd-redir.ultralight.org:1094//store/group/uerj/mabarros/CRAB_PrivateMC_RunII_UL_SPS_2017/jpsi_ccbar_9to30_VFNS_SPS_2017_13TeV/230726_145415/0000/Jpsi_9to30_Dstar_SPS_2017_13TeV_AOD_269.root\n'
p365
aS'root://xrootd-redir.ultralight.org:1094//store/group/uerj/mabarros/CRAB_PrivateMC_RunII_UL_SPS_2017/jpsi_ccbar_9to30_VFNS_SPS_2017_13TeV/230726_145415/0000/Jpsi_9to30_Dstar_SPS_2017_13TeV_AOD_270.root\n'
p366
aS'root://xrootd-redir.ultralight.org:1094//store/group/uerj/mabarros/CRAB_PrivateMC_RunII_UL_SPS_2017/jpsi_ccbar_9to30_VFNS_SPS_2017_13TeV/230726_145415/0000/Jpsi_9to30_Dstar_SPS_2017_13TeV_AOD_271.root\n'
p367
aS'root://xrootd-redir.ultralight.org:1094//store/group/uerj/mabarros/CRAB_PrivateMC_RunII_UL_SPS_2017/jpsi_ccbar_9to30_VFNS_SPS_2017_13TeV/230726_145415/0000/Jpsi_9to30_Dstar_SPS_2017_13TeV_AOD_272.root\n'
p368
aS'root://xrootd-redir.ultralight.org:1094//store/group/uerj/mabarros/CRAB_PrivateMC_RunII_UL_SPS_2017/jpsi_ccbar_9to30_VFNS_SPS_2017_13TeV/230726_145415/0000/Jpsi_9to30_Dstar_SPS_2017_13TeV_AOD_273.root\n'
p369
aS'root://xrootd-redir.ultralight.org:1094//store/group/uerj/mabarros/CRAB_PrivateMC_RunII_UL_SPS_2017/jpsi_ccbar_9to30_VFNS_SPS_2017_13TeV/230726_145415/0000/Jpsi_9to30_Dstar_SPS_2017_13TeV_AOD_274.root\n'
p370
aS'root://xrootd-redir.ultralight.org:1094//store/group/uerj/mabarros/CRAB_PrivateMC_RunII_UL_SPS_2017/jpsi_ccbar_9to30_VFNS_SPS_2017_13TeV/230726_145415/0000/Jpsi_9to30_Dstar_SPS_2017_13TeV_AOD_275.root\n'
p371
aS'root://xrootd-redir.ultralight.org:1094//store/group/uerj/mabarros/CRAB_PrivateMC_RunII_UL_SPS_2017/jpsi_ccbar_9to30_VFNS_SPS_2017_13TeV/230726_145415/0000/Jpsi_9to30_Dstar_SPS_2017_13TeV_AOD_276.root\n'
p372
aS'root://xrootd-redir.ultralight.org:1094//store/group/uerj/mabarros/CRAB_PrivateMC_RunII_UL_SPS_2017/jpsi_ccbar_9to30_VFNS_SPS_2017_13TeV/230726_145415/0000/Jpsi_9to30_Dstar_SPS_2017_13TeV_AOD_277.root\n'
p373
aS'root://xrootd-redir.ultralight.org:1094//store/group/uerj/mabarros/CRAB_PrivateMC_RunII_UL_SPS_2017/jpsi_ccbar_9to30_VFNS_SPS_2017_13TeV/230726_145415/0000/Jpsi_9to30_Dstar_SPS_2017_13TeV_AOD_278.root\n'
p374
aS'root://xrootd-redir.ultralight.org:1094//store/group/uerj/mabarros/CRAB_PrivateMC_RunII_UL_SPS_2017/jpsi_ccbar_9to30_VFNS_SPS_2017_13TeV/230726_145415/0000/Jpsi_9to30_Dstar_SPS_2017_13TeV_AOD_279.root\n'
p375
aS'root://xrootd-redir.ultralight.org:1094//store/group/uerj/mabarros/CRAB_PrivateMC_RunII_UL_SPS_2017/jpsi_ccbar_9to30_VFNS_SPS_2017_13TeV/230726_145415/0000/Jpsi_9to30_Dstar_SPS_2017_13TeV_AOD_280.root\n'
p376
aS'root://xrootd-redir.ultralight.org:1094//store/group/uerj/mabarros/CRAB_PrivateMC_RunII_UL_SPS_2017/jpsi_ccbar_9to30_VFNS_SPS_2017_13TeV/230726_145415/0000/Jpsi_9to30_Dstar_SPS_2017_13TeV_AOD_281.root\n'
p377
aS'root://xrootd-redir.ultralight.org:1094//store/group/uerj/mabarros/CRAB_PrivateMC_RunII_UL_SPS_2017/jpsi_ccbar_9to30_VFNS_SPS_2017_13TeV/230726_145415/0000/Jpsi_9to30_Dstar_SPS_2017_13TeV_AOD_282.root\n'
p378
aS'root://xrootd-redir.ultralight.org:1094//store/group/uerj/mabarros/CRAB_PrivateMC_RunII_UL_SPS_2017/jpsi_ccbar_9to30_VFNS_SPS_2017_13TeV/230726_145415/0000/Jpsi_9to30_Dstar_SPS_2017_13TeV_AOD_283.root\n'
p379
aS'root://xrootd-redir.ultralight.org:1094//store/group/uerj/mabarros/CRAB_PrivateMC_RunII_UL_SPS_2017/jpsi_ccbar_9to30_VFNS_SPS_2017_13TeV/230726_145415/0000/Jpsi_9to30_Dstar_SPS_2017_13TeV_AOD_284.root\n'
p380
aS'root://xrootd-redir.ultralight.org:1094//store/group/uerj/mabarros/CRAB_PrivateMC_RunII_UL_SPS_2017/jpsi_ccbar_9to30_VFNS_SPS_2017_13TeV/230726_145415/0000/Jpsi_9to30_Dstar_SPS_2017_13TeV_AOD_285.root\n'
p381
aS'root://xrootd-redir.ultralight.org:1094//store/group/uerj/mabarros/CRAB_PrivateMC_RunII_UL_SPS_2017/jpsi_ccbar_9to30_VFNS_SPS_2017_13TeV/230726_145415/0000/Jpsi_9to30_Dstar_SPS_2017_13TeV_AOD_286.root\n'
p382
aS'root://xrootd-redir.ultralight.org:1094//store/group/uerj/mabarros/CRAB_PrivateMC_RunII_UL_SPS_2017/jpsi_ccbar_9to30_VFNS_SPS_2017_13TeV/230726_145415/0000/Jpsi_9to30_Dstar_SPS_2017_13TeV_AOD_287.root\n'
p383
aS'root://xrootd-redir.ultralight.org:1094//store/group/uerj/mabarros/CRAB_PrivateMC_RunII_UL_SPS_2017/jpsi_ccbar_9to30_VFNS_SPS_2017_13TeV/230726_145415/0000/Jpsi_9to30_Dstar_SPS_2017_13TeV_AOD_288.root\n'
p384
aS'root://xrootd-redir.ultralight.org:1094//store/group/uerj/mabarros/CRAB_PrivateMC_RunII_UL_SPS_2017/jpsi_ccbar_9to30_VFNS_SPS_2017_13TeV/230726_145415/0000/Jpsi_9to30_Dstar_SPS_2017_13TeV_AOD_289.root\n'
p385
aS'root://xrootd-redir.ultralight.org:1094//store/group/uerj/mabarros/CRAB_PrivateMC_RunII_UL_SPS_2017/jpsi_ccbar_9to30_VFNS_SPS_2017_13TeV/230726_145415/0000/Jpsi_9to30_Dstar_SPS_2017_13TeV_AOD_290.root\n'
p386
aS'root://xrootd-redir.ultralight.org:1094//store/group/uerj/mabarros/CRAB_PrivateMC_RunII_UL_SPS_2017/jpsi_ccbar_9to30_VFNS_SPS_2017_13TeV/230726_145415/0000/Jpsi_9to30_Dstar_SPS_2017_13TeV_AOD_291.root\n'
p387
aS'root://xrootd-redir.ultralight.org:1094//store/group/uerj/mabarros/CRAB_PrivateMC_RunII_UL_SPS_2017/jpsi_ccbar_9to30_VFNS_SPS_2017_13TeV/230726_145415/0000/Jpsi_9to30_Dstar_SPS_2017_13TeV_AOD_292.root\n'
p388
aS'root://xrootd-redir.ultralight.org:1094//store/group/uerj/mabarros/CRAB_PrivateMC_RunII_UL_SPS_2017/jpsi_ccbar_9to30_VFNS_SPS_2017_13TeV/230726_145415/0000/Jpsi_9to30_Dstar_SPS_2017_13TeV_AOD_293.root\n'
p389
aS'root://xrootd-redir.ultralight.org:1094//store/group/uerj/mabarros/CRAB_PrivateMC_RunII_UL_SPS_2017/jpsi_ccbar_9to30_VFNS_SPS_2017_13TeV/230726_145415/0000/Jpsi_9to30_Dstar_SPS_2017_13TeV_AOD_294.root\n'
p390
aS'root://xrootd-redir.ultralight.org:1094//store/group/uerj/mabarros/CRAB_PrivateMC_RunII_UL_SPS_2017/jpsi_ccbar_9to30_VFNS_SPS_2017_13TeV/230726_145415/0000/Jpsi_9to30_Dstar_SPS_2017_13TeV_AOD_295.root\n'
p391
aS'root://xrootd-redir.ultralight.org:1094//store/group/uerj/mabarros/CRAB_PrivateMC_RunII_UL_SPS_2017/jpsi_ccbar_9to30_VFNS_SPS_2017_13TeV/230726_145415/0000/Jpsi_9to30_Dstar_SPS_2017_13TeV_AOD_296.root\n'
p392
aS'root://xrootd-redir.ultralight.org:1094//store/group/uerj/mabarros/CRAB_PrivateMC_RunII_UL_SPS_2017/jpsi_ccbar_9to30_VFNS_SPS_2017_13TeV/230726_145415/0000/Jpsi_9to30_Dstar_SPS_2017_13TeV_AOD_297.root\n'
p393
aS'root://xrootd-redir.ultralight.org:1094//store/group/uerj/mabarros/CRAB_PrivateMC_RunII_UL_SPS_2017/jpsi_ccbar_9to30_VFNS_SPS_2017_13TeV/230726_145415/0000/Jpsi_9to30_Dstar_SPS_2017_13TeV_AOD_298.root\n'
p394
aS'root://xrootd-redir.ultralight.org:1094//store/group/uerj/mabarros/CRAB_PrivateMC_RunII_UL_SPS_2017/jpsi_ccbar_9to30_VFNS_SPS_2017_13TeV/230726_145415/0000/Jpsi_9to30_Dstar_SPS_2017_13TeV_AOD_299.root\n'
p395
aS'root://xrootd-redir.ultralight.org:1094//store/group/uerj/mabarros/CRAB_PrivateMC_RunII_UL_SPS_2017/jpsi_ccbar_9to30_VFNS_SPS_2017_13TeV/230726_145415/0000/Jpsi_9to30_Dstar_SPS_2017_13TeV_AOD_300.root\n'
p396
aS'root://xrootd-redir.ultralight.org:1094//store/group/uerj/mabarros/CRAB_PrivateMC_RunII_UL_SPS_2017/jpsi_ccbar_9to30_VFNS_SPS_2017_13TeV/230726_145415/0000/Jpsi_9to30_Dstar_SPS_2017_13TeV_AOD_301.root\n'
p397
aS'root://xrootd-redir.ultralight.org:1094//store/group/uerj/mabarros/CRAB_PrivateMC_RunII_UL_SPS_2017/jpsi_ccbar_9to30_VFNS_SPS_2017_13TeV/230726_145415/0000/Jpsi_9to30_Dstar_SPS_2017_13TeV_AOD_302.root\n'
p398
aS'root://xrootd-redir.ultralight.org:1094//store/group/uerj/mabarros/CRAB_PrivateMC_RunII_UL_SPS_2017/jpsi_ccbar_9to30_VFNS_SPS_2017_13TeV/230726_145415/0000/Jpsi_9to30_Dstar_SPS_2017_13TeV_AOD_303.root\n'
p399
aS'root://xrootd-redir.ultralight.org:1094//store/group/uerj/mabarros/CRAB_PrivateMC_RunII_UL_SPS_2017/jpsi_ccbar_9to30_VFNS_SPS_2017_13TeV/230726_145415/0000/Jpsi_9to30_Dstar_SPS_2017_13TeV_AOD_304.root\n'
p400
aS'root://xrootd-redir.ultralight.org:1094//store/group/uerj/mabarros/CRAB_PrivateMC_RunII_UL_SPS_2017/jpsi_ccbar_9to30_VFNS_SPS_2017_13TeV/230726_145415/0000/Jpsi_9to30_Dstar_SPS_2017_13TeV_AOD_305.root\n'
p401
aS'root://xrootd-redir.ultralight.org:1094//store/group/uerj/mabarros/CRAB_PrivateMC_RunII_UL_SPS_2017/jpsi_ccbar_9to30_VFNS_SPS_2017_13TeV/230726_145415/0000/Jpsi_9to30_Dstar_SPS_2017_13TeV_AOD_306.root\n'
p402
aS'root://xrootd-redir.ultralight.org:1094//store/group/uerj/mabarros/CRAB_PrivateMC_RunII_UL_SPS_2017/jpsi_ccbar_9to30_VFNS_SPS_2017_13TeV/230726_145415/0000/Jpsi_9to30_Dstar_SPS_2017_13TeV_AOD_307.root\n'
p403
aS'root://xrootd-redir.ultralight.org:1094//store/group/uerj/mabarros/CRAB_PrivateMC_RunII_UL_SPS_2017/jpsi_ccbar_9to30_VFNS_SPS_2017_13TeV/230726_145415/0000/Jpsi_9to30_Dstar_SPS_2017_13TeV_AOD_308.root\n'
p404
aS'root://xrootd-redir.ultralight.org:1094//store/group/uerj/mabarros/CRAB_PrivateMC_RunII_UL_SPS_2017/jpsi_ccbar_9to30_VFNS_SPS_2017_13TeV/230726_145415/0000/Jpsi_9to30_Dstar_SPS_2017_13TeV_AOD_309.root\n'
p405
aS'root://xrootd-redir.ultralight.org:1094//store/group/uerj/mabarros/CRAB_PrivateMC_RunII_UL_SPS_2017/jpsi_ccbar_9to30_VFNS_SPS_2017_13TeV/230726_145415/0000/Jpsi_9to30_Dstar_SPS_2017_13TeV_AOD_310.root\n'
p406
aS'root://xrootd-redir.ultralight.org:1094//store/group/uerj/mabarros/CRAB_PrivateMC_RunII_UL_SPS_2017/jpsi_ccbar_9to30_VFNS_SPS_2017_13TeV/230726_145415/0000/Jpsi_9to30_Dstar_SPS_2017_13TeV_AOD_311.root\n'
p407
aS'root://xrootd-redir.ultralight.org:1094//store/group/uerj/mabarros/CRAB_PrivateMC_RunII_UL_SPS_2017/jpsi_ccbar_9to30_VFNS_SPS_2017_13TeV/230726_145415/0000/Jpsi_9to30_Dstar_SPS_2017_13TeV_AOD_312.root\n'
p408
aS'root://xrootd-redir.ultralight.org:1094//store/group/uerj/mabarros/CRAB_PrivateMC_RunII_UL_SPS_2017/jpsi_ccbar_9to30_VFNS_SPS_2017_13TeV/230726_145415/0000/Jpsi_9to30_Dstar_SPS_2017_13TeV_AOD_313.root\n'
p409
aS'root://xrootd-redir.ultralight.org:1094//store/group/uerj/mabarros/CRAB_PrivateMC_RunII_UL_SPS_2017/jpsi_ccbar_9to30_VFNS_SPS_2017_13TeV/230726_145415/0000/Jpsi_9to30_Dstar_SPS_2017_13TeV_AOD_314.root\n'
p410
aS'root://xrootd-redir.ultralight.org:1094//store/group/uerj/mabarros/CRAB_PrivateMC_RunII_UL_SPS_2017/jpsi_ccbar_9to30_VFNS_SPS_2017_13TeV/230726_145415/0000/Jpsi_9to30_Dstar_SPS_2017_13TeV_AOD_315.root\n'
p411
aS'root://xrootd-redir.ultralight.org:1094//store/group/uerj/mabarros/CRAB_PrivateMC_RunII_UL_SPS_2017/jpsi_ccbar_9to30_VFNS_SPS_2017_13TeV/230726_145415/0000/Jpsi_9to30_Dstar_SPS_2017_13TeV_AOD_316.root\n'
p412
aS'root://xrootd-redir.ultralight.org:1094//store/group/uerj/mabarros/CRAB_PrivateMC_RunII_UL_SPS_2017/jpsi_ccbar_9to30_VFNS_SPS_2017_13TeV/230726_145415/0000/Jpsi_9to30_Dstar_SPS_2017_13TeV_AOD_317.root\n'
p413
aS'root://xrootd-redir.ultralight.org:1094//store/group/uerj/mabarros/CRAB_PrivateMC_RunII_UL_SPS_2017/jpsi_ccbar_9to30_VFNS_SPS_2017_13TeV/230726_145415/0000/Jpsi_9to30_Dstar_SPS_2017_13TeV_AOD_318.root\n'
p414
aS'root://xrootd-redir.ultralight.org:1094//store/group/uerj/mabarros/CRAB_PrivateMC_RunII_UL_SPS_2017/jpsi_ccbar_9to30_VFNS_SPS_2017_13TeV/230726_145415/0000/Jpsi_9to30_Dstar_SPS_2017_13TeV_AOD_319.root\n'
p415
aS'root://xrootd-redir.ultralight.org:1094//store/group/uerj/mabarros/CRAB_PrivateMC_RunII_UL_SPS_2017/jpsi_ccbar_9to30_VFNS_SPS_2017_13TeV/230726_145415/0000/Jpsi_9to30_Dstar_SPS_2017_13TeV_AOD_320.root\n'
p416
aS'root://xrootd-redir.ultralight.org:1094//store/group/uerj/mabarros/CRAB_PrivateMC_RunII_UL_SPS_2017/jpsi_ccbar_9to30_VFNS_SPS_2017_13TeV/230726_145415/0000/Jpsi_9to30_Dstar_SPS_2017_13TeV_AOD_321.root\n'
p417
aS'root://xrootd-redir.ultralight.org:1094//store/group/uerj/mabarros/CRAB_PrivateMC_RunII_UL_SPS_2017/jpsi_ccbar_9to30_VFNS_SPS_2017_13TeV/230726_145415/0000/Jpsi_9to30_Dstar_SPS_2017_13TeV_AOD_322.root\n'
p418
aS'root://xrootd-redir.ultralight.org:1094//store/group/uerj/mabarros/CRAB_PrivateMC_RunII_UL_SPS_2017/jpsi_ccbar_9to30_VFNS_SPS_2017_13TeV/230726_145415/0000/Jpsi_9to30_Dstar_SPS_2017_13TeV_AOD_323.root\n'
p419
aS'root://xrootd-redir.ultralight.org:1094//store/group/uerj/mabarros/CRAB_PrivateMC_RunII_UL_SPS_2017/jpsi_ccbar_9to30_VFNS_SPS_2017_13TeV/230726_145415/0000/Jpsi_9to30_Dstar_SPS_2017_13TeV_AOD_324.root\n'
p420
aS'root://xrootd-redir.ultralight.org:1094//store/group/uerj/mabarros/CRAB_PrivateMC_RunII_UL_SPS_2017/jpsi_ccbar_9to30_VFNS_SPS_2017_13TeV/230726_145415/0000/Jpsi_9to30_Dstar_SPS_2017_13TeV_AOD_325.root\n'
p421
aS'root://xrootd-redir.ultralight.org:1094//store/group/uerj/mabarros/CRAB_PrivateMC_RunII_UL_SPS_2017/jpsi_ccbar_9to30_VFNS_SPS_2017_13TeV/230726_145415/0000/Jpsi_9to30_Dstar_SPS_2017_13TeV_AOD_326.root\n'
p422
aS'root://xrootd-redir.ultralight.org:1094//store/group/uerj/mabarros/CRAB_PrivateMC_RunII_UL_SPS_2017/jpsi_ccbar_9to30_VFNS_SPS_2017_13TeV/230726_145415/0000/Jpsi_9to30_Dstar_SPS_2017_13TeV_AOD_327.root\n'
p423
aS'root://xrootd-redir.ultralight.org:1094//store/group/uerj/mabarros/CRAB_PrivateMC_RunII_UL_SPS_2017/jpsi_ccbar_9to30_VFNS_SPS_2017_13TeV/230726_145415/0000/Jpsi_9to30_Dstar_SPS_2017_13TeV_AOD_328.root\n'
p424
aS'root://xrootd-redir.ultralight.org:1094//store/group/uerj/mabarros/CRAB_PrivateMC_RunII_UL_SPS_2017/jpsi_ccbar_9to30_VFNS_SPS_2017_13TeV/230726_145415/0000/Jpsi_9to30_Dstar_SPS_2017_13TeV_AOD_329.root\n'
p425
aS'root://xrootd-redir.ultralight.org:1094//store/group/uerj/mabarros/CRAB_PrivateMC_RunII_UL_SPS_2017/jpsi_ccbar_9to30_VFNS_SPS_2017_13TeV/230726_145415/0000/Jpsi_9to30_Dstar_SPS_2017_13TeV_AOD_330.root\n'
p426
aS'root://xrootd-redir.ultralight.org:1094//store/group/uerj/mabarros/CRAB_PrivateMC_RunII_UL_SPS_2017/jpsi_ccbar_9to30_VFNS_SPS_2017_13TeV/230726_145415/0000/Jpsi_9to30_Dstar_SPS_2017_13TeV_AOD_331.root\n'
p427
aS'root://xrootd-redir.ultralight.org:1094//store/group/uerj/mabarros/CRAB_PrivateMC_RunII_UL_SPS_2017/jpsi_ccbar_9to30_VFNS_SPS_2017_13TeV/230726_145415/0000/Jpsi_9to30_Dstar_SPS_2017_13TeV_AOD_332.root\n'
p428
aS'root://xrootd-redir.ultralight.org:1094//store/group/uerj/mabarros/CRAB_PrivateMC_RunII_UL_SPS_2017/jpsi_ccbar_9to30_VFNS_SPS_2017_13TeV/230726_145415/0000/Jpsi_9to30_Dstar_SPS_2017_13TeV_AOD_333.root\n'
p429
aS'root://xrootd-redir.ultralight.org:1094//store/group/uerj/mabarros/CRAB_PrivateMC_RunII_UL_SPS_2017/jpsi_ccbar_9to30_VFNS_SPS_2017_13TeV/230726_145415/0000/Jpsi_9to30_Dstar_SPS_2017_13TeV_AOD_334.root\n'
p430
aS'root://xrootd-redir.ultralight.org:1094//store/group/uerj/mabarros/CRAB_PrivateMC_RunII_UL_SPS_2017/jpsi_ccbar_9to30_VFNS_SPS_2017_13TeV/230726_145415/0000/Jpsi_9to30_Dstar_SPS_2017_13TeV_AOD_335.root\n'
p431
aS'root://xrootd-redir.ultralight.org:1094//store/group/uerj/mabarros/CRAB_PrivateMC_RunII_UL_SPS_2017/jpsi_ccbar_9to30_VFNS_SPS_2017_13TeV/230726_145415/0000/Jpsi_9to30_Dstar_SPS_2017_13TeV_AOD_336.root\n'
p432
aS'root://xrootd-redir.ultralight.org:1094//store/group/uerj/mabarros/CRAB_PrivateMC_RunII_UL_SPS_2017/jpsi_ccbar_9to30_VFNS_SPS_2017_13TeV/230726_145415/0000/Jpsi_9to30_Dstar_SPS_2017_13TeV_AOD_337.root\n'
p433
aS'root://xrootd-redir.ultralight.org:1094//store/group/uerj/mabarros/CRAB_PrivateMC_RunII_UL_SPS_2017/jpsi_ccbar_9to30_VFNS_SPS_2017_13TeV/230726_145415/0000/Jpsi_9to30_Dstar_SPS_2017_13TeV_AOD_338.root\n'
p434
aS'root://xrootd-redir.ultralight.org:1094//store/group/uerj/mabarros/CRAB_PrivateMC_RunII_UL_SPS_2017/jpsi_ccbar_9to30_VFNS_SPS_2017_13TeV/230726_145415/0000/Jpsi_9to30_Dstar_SPS_2017_13TeV_AOD_339.root\n'
p435
aS'root://xrootd-redir.ultralight.org:1094//store/group/uerj/mabarros/CRAB_PrivateMC_RunII_UL_SPS_2017/jpsi_ccbar_9to30_VFNS_SPS_2017_13TeV/230726_145415/0000/Jpsi_9to30_Dstar_SPS_2017_13TeV_AOD_340.root\n'
p436
aS'root://xrootd-redir.ultralight.org:1094//store/group/uerj/mabarros/CRAB_PrivateMC_RunII_UL_SPS_2017/jpsi_ccbar_9to30_VFNS_SPS_2017_13TeV/230726_145415/0000/Jpsi_9to30_Dstar_SPS_2017_13TeV_AOD_341.root\n'
p437
aS'root://xrootd-redir.ultralight.org:1094//store/group/uerj/mabarros/CRAB_PrivateMC_RunII_UL_SPS_2017/jpsi_ccbar_9to30_VFNS_SPS_2017_13TeV/230726_145415/0000/Jpsi_9to30_Dstar_SPS_2017_13TeV_AOD_342.root\n'
p438
aS'root://xrootd-redir.ultralight.org:1094//store/group/uerj/mabarros/CRAB_PrivateMC_RunII_UL_SPS_2017/jpsi_ccbar_9to30_VFNS_SPS_2017_13TeV/230726_145415/0000/Jpsi_9to30_Dstar_SPS_2017_13TeV_AOD_343.root\n'
p439
aS'root://xrootd-redir.ultralight.org:1094//store/group/uerj/mabarros/CRAB_PrivateMC_RunII_UL_SPS_2017/jpsi_ccbar_9to30_VFNS_SPS_2017_13TeV/230726_145415/0000/Jpsi_9to30_Dstar_SPS_2017_13TeV_AOD_344.root\n'
p440
aS'root://xrootd-redir.ultralight.org:1094//store/group/uerj/mabarros/CRAB_PrivateMC_RunII_UL_SPS_2017/jpsi_ccbar_9to30_VFNS_SPS_2017_13TeV/230726_145415/0000/Jpsi_9to30_Dstar_SPS_2017_13TeV_AOD_345.root\n'
p441
aS'root://xrootd-redir.ultralight.org:1094//store/group/uerj/mabarros/CRAB_PrivateMC_RunII_UL_SPS_2017/jpsi_ccbar_9to30_VFNS_SPS_2017_13TeV/230726_145415/0000/Jpsi_9to30_Dstar_SPS_2017_13TeV_AOD_346.root\n'
p442
aS'root://xrootd-redir.ultralight.org:1094//store/group/uerj/mabarros/CRAB_PrivateMC_RunII_UL_SPS_2017/jpsi_ccbar_9to30_VFNS_SPS_2017_13TeV/230726_145415/0000/Jpsi_9to30_Dstar_SPS_2017_13TeV_AOD_347.root\n'
p443
aS'root://xrootd-redir.ultralight.org:1094//store/group/uerj/mabarros/CRAB_PrivateMC_RunII_UL_SPS_2017/jpsi_ccbar_9to30_VFNS_SPS_2017_13TeV/230726_145415/0000/Jpsi_9to30_Dstar_SPS_2017_13TeV_AOD_348.root\n'
p444
aS'root://xrootd-redir.ultralight.org:1094//store/group/uerj/mabarros/CRAB_PrivateMC_RunII_UL_SPS_2017/jpsi_ccbar_9to30_VFNS_SPS_2017_13TeV/230726_145415/0000/Jpsi_9to30_Dstar_SPS_2017_13TeV_AOD_349.root\n'
p445
aS'root://xrootd-redir.ultralight.org:1094//store/group/uerj/mabarros/CRAB_PrivateMC_RunII_UL_SPS_2017/jpsi_ccbar_9to30_VFNS_SPS_2017_13TeV/230726_145415/0000/Jpsi_9to30_Dstar_SPS_2017_13TeV_AOD_350.root\n'
p446
aS'root://xrootd-redir.ultralight.org:1094//store/group/uerj/mabarros/CRAB_PrivateMC_RunII_UL_SPS_2017/jpsi_ccbar_9to30_VFNS_SPS_2017_13TeV/230726_145415/0000/Jpsi_9to30_Dstar_SPS_2017_13TeV_AOD_351.root\n'
p447
aS'root://xrootd-redir.ultralight.org:1094//store/group/uerj/mabarros/CRAB_PrivateMC_RunII_UL_SPS_2017/jpsi_ccbar_9to30_VFNS_SPS_2017_13TeV/230726_145415/0000/Jpsi_9to30_Dstar_SPS_2017_13TeV_AOD_352.root\n'
p448
aS'root://xrootd-redir.ultralight.org:1094//store/group/uerj/mabarros/CRAB_PrivateMC_RunII_UL_SPS_2017/jpsi_ccbar_9to30_VFNS_SPS_2017_13TeV/230726_145415/0000/Jpsi_9to30_Dstar_SPS_2017_13TeV_AOD_353.root\n'
p449
aS'root://xrootd-redir.ultralight.org:1094//store/group/uerj/mabarros/CRAB_PrivateMC_RunII_UL_SPS_2017/jpsi_ccbar_9to30_VFNS_SPS_2017_13TeV/230726_145415/0000/Jpsi_9to30_Dstar_SPS_2017_13TeV_AOD_354.root\n'
p450
aS'root://xrootd-redir.ultralight.org:1094//store/group/uerj/mabarros/CRAB_PrivateMC_RunII_UL_SPS_2017/jpsi_ccbar_9to30_VFNS_SPS_2017_13TeV/230726_145415/0000/Jpsi_9to30_Dstar_SPS_2017_13TeV_AOD_355.root\n'
p451
aS'root://xrootd-redir.ultralight.org:1094//store/group/uerj/mabarros/CRAB_PrivateMC_RunII_UL_SPS_2017/jpsi_ccbar_9to30_VFNS_SPS_2017_13TeV/230726_145415/0000/Jpsi_9to30_Dstar_SPS_2017_13TeV_AOD_356.root\n'
p452
aS'root://xrootd-redir.ultralight.org:1094//store/group/uerj/mabarros/CRAB_PrivateMC_RunII_UL_SPS_2017/jpsi_ccbar_9to30_VFNS_SPS_2017_13TeV/230726_145415/0000/Jpsi_9to30_Dstar_SPS_2017_13TeV_AOD_357.root\n'
p453
aS'root://xrootd-redir.ultralight.org:1094//store/group/uerj/mabarros/CRAB_PrivateMC_RunII_UL_SPS_2017/jpsi_ccbar_9to30_VFNS_SPS_2017_13TeV/230726_145415/0000/Jpsi_9to30_Dstar_SPS_2017_13TeV_AOD_358.root\n'
p454
aS'root://xrootd-redir.ultralight.org:1094//store/group/uerj/mabarros/CRAB_PrivateMC_RunII_UL_SPS_2017/jpsi_ccbar_9to30_VFNS_SPS_2017_13TeV/230726_145415/0000/Jpsi_9to30_Dstar_SPS_2017_13TeV_AOD_359.root\n'
p455
aS'root://xrootd-redir.ultralight.org:1094//store/group/uerj/mabarros/CRAB_PrivateMC_RunII_UL_SPS_2017/jpsi_ccbar_9to30_VFNS_SPS_2017_13TeV/230726_145415/0000/Jpsi_9to30_Dstar_SPS_2017_13TeV_AOD_360.root\n'
p456
aS'root://xrootd-redir.ultralight.org:1094//store/group/uerj/mabarros/CRAB_PrivateMC_RunII_UL_SPS_2017/jpsi_ccbar_9to30_VFNS_SPS_2017_13TeV/230726_145415/0000/Jpsi_9to30_Dstar_SPS_2017_13TeV_AOD_361.root\n'
p457
aS'root://xrootd-redir.ultralight.org:1094//store/group/uerj/mabarros/CRAB_PrivateMC_RunII_UL_SPS_2017/jpsi_ccbar_9to30_VFNS_SPS_2017_13TeV/230726_145415/0000/Jpsi_9to30_Dstar_SPS_2017_13TeV_AOD_362.root\n'
p458
aS'root://xrootd-redir.ultralight.org:1094//store/group/uerj/mabarros/CRAB_PrivateMC_RunII_UL_SPS_2017/jpsi_ccbar_9to30_VFNS_SPS_2017_13TeV/230726_145415/0000/Jpsi_9to30_Dstar_SPS_2017_13TeV_AOD_363.root\n'
p459
aS'root://xrootd-redir.ultralight.org:1094//store/group/uerj/mabarros/CRAB_PrivateMC_RunII_UL_SPS_2017/jpsi_ccbar_9to30_VFNS_SPS_2017_13TeV/230726_145415/0000/Jpsi_9to30_Dstar_SPS_2017_13TeV_AOD_364.root\n'
p460
aS'root://xrootd-redir.ultralight.org:1094//store/group/uerj/mabarros/CRAB_PrivateMC_RunII_UL_SPS_2017/jpsi_ccbar_9to30_VFNS_SPS_2017_13TeV/230726_145415/0000/Jpsi_9to30_Dstar_SPS_2017_13TeV_AOD_365.root\n'
p461
aS'root://xrootd-redir.ultralight.org:1094//store/group/uerj/mabarros/CRAB_PrivateMC_RunII_UL_SPS_2017/jpsi_ccbar_9to30_VFNS_SPS_2017_13TeV/230726_145415/0000/Jpsi_9to30_Dstar_SPS_2017_13TeV_AOD_366.root\n'
p462
aS'root://xrootd-redir.ultralight.org:1094//store/group/uerj/mabarros/CRAB_PrivateMC_RunII_UL_SPS_2017/jpsi_ccbar_9to30_VFNS_SPS_2017_13TeV/230726_145415/0000/Jpsi_9to30_Dstar_SPS_2017_13TeV_AOD_367.root\n'
p463
aS'root://xrootd-redir.ultralight.org:1094//store/group/uerj/mabarros/CRAB_PrivateMC_RunII_UL_SPS_2017/jpsi_ccbar_9to30_VFNS_SPS_2017_13TeV/230726_145415/0000/Jpsi_9to30_Dstar_SPS_2017_13TeV_AOD_368.root\n'
p464
aS'root://xrootd-redir.ultralight.org:1094//store/group/uerj/mabarros/CRAB_PrivateMC_RunII_UL_SPS_2017/jpsi_ccbar_9to30_VFNS_SPS_2017_13TeV/230726_145415/0000/Jpsi_9to30_Dstar_SPS_2017_13TeV_AOD_369.root\n'
p465
aS'root://xrootd-redir.ultralight.org:1094//store/group/uerj/mabarros/CRAB_PrivateMC_RunII_UL_SPS_2017/jpsi_ccbar_9to30_VFNS_SPS_2017_13TeV/230726_145415/0000/Jpsi_9to30_Dstar_SPS_2017_13TeV_AOD_370.root\n'
p466
aS'root://xrootd-redir.ultralight.org:1094//store/group/uerj/mabarros/CRAB_PrivateMC_RunII_UL_SPS_2017/jpsi_ccbar_9to30_VFNS_SPS_2017_13TeV/230726_145415/0000/Jpsi_9to30_Dstar_SPS_2017_13TeV_AOD_371.root\n'
p467
aS'root://xrootd-redir.ultralight.org:1094//store/group/uerj/mabarros/CRAB_PrivateMC_RunII_UL_SPS_2017/jpsi_ccbar_9to30_VFNS_SPS_2017_13TeV/230726_145415/0000/Jpsi_9to30_Dstar_SPS_2017_13TeV_AOD_372.root\n'
p468
aS'root://xrootd-redir.ultralight.org:1094//store/group/uerj/mabarros/CRAB_PrivateMC_RunII_UL_SPS_2017/jpsi_ccbar_9to30_VFNS_SPS_2017_13TeV/230726_145415/0000/Jpsi_9to30_Dstar_SPS_2017_13TeV_AOD_373.root\n'
p469
aS'root://xrootd-redir.ultralight.org:1094//store/group/uerj/mabarros/CRAB_PrivateMC_RunII_UL_SPS_2017/jpsi_ccbar_9to30_VFNS_SPS_2017_13TeV/230726_145415/0000/Jpsi_9to30_Dstar_SPS_2017_13TeV_AOD_374.root\n'
p470
aS'root://xrootd-redir.ultralight.org:1094//store/group/uerj/mabarros/CRAB_PrivateMC_RunII_UL_SPS_2017/jpsi_ccbar_9to30_VFNS_SPS_2017_13TeV/230726_145415/0000/Jpsi_9to30_Dstar_SPS_2017_13TeV_AOD_375.root\n'
p471
aS'root://xrootd-redir.ultralight.org:1094//store/group/uerj/mabarros/CRAB_PrivateMC_RunII_UL_SPS_2017/jpsi_ccbar_9to30_VFNS_SPS_2017_13TeV/230726_145415/0000/Jpsi_9to30_Dstar_SPS_2017_13TeV_AOD_376.root\n'
p472
aS'root://xrootd-redir.ultralight.org:1094//store/group/uerj/mabarros/CRAB_PrivateMC_RunII_UL_SPS_2017/jpsi_ccbar_9to30_VFNS_SPS_2017_13TeV/230726_145415/0000/Jpsi_9to30_Dstar_SPS_2017_13TeV_AOD_377.root\n'
p473
aS'root://xrootd-redir.ultralight.org:1094//store/group/uerj/mabarros/CRAB_PrivateMC_RunII_UL_SPS_2017/jpsi_ccbar_9to30_VFNS_SPS_2017_13TeV/230726_145415/0000/Jpsi_9to30_Dstar_SPS_2017_13TeV_AOD_378.root\n'
p474
aS'root://xrootd-redir.ultralight.org:1094//store/group/uerj/mabarros/CRAB_PrivateMC_RunII_UL_SPS_2017/jpsi_ccbar_9to30_VFNS_SPS_2017_13TeV/230726_145415/0000/Jpsi_9to30_Dstar_SPS_2017_13TeV_AOD_379.root\n'
p475
aS'root://xrootd-redir.ultralight.org:1094//store/group/uerj/mabarros/CRAB_PrivateMC_RunII_UL_SPS_2017/jpsi_ccbar_9to30_VFNS_SPS_2017_13TeV/230726_145415/0000/Jpsi_9to30_Dstar_SPS_2017_13TeV_AOD_380.root\n'
p476
aS'root://xrootd-redir.ultralight.org:1094//store/group/uerj/mabarros/CRAB_PrivateMC_RunII_UL_SPS_2017/jpsi_ccbar_9to30_VFNS_SPS_2017_13TeV/230726_145415/0000/Jpsi_9to30_Dstar_SPS_2017_13TeV_AOD_381.root\n'
p477
aS'root://xrootd-redir.ultralight.org:1094//store/group/uerj/mabarros/CRAB_PrivateMC_RunII_UL_SPS_2017/jpsi_ccbar_9to30_VFNS_SPS_2017_13TeV/230726_145415/0000/Jpsi_9to30_Dstar_SPS_2017_13TeV_AOD_382.root\n'
p478
aS'root://xrootd-redir.ultralight.org:1094//store/group/uerj/mabarros/CRAB_PrivateMC_RunII_UL_SPS_2017/jpsi_ccbar_9to30_VFNS_SPS_2017_13TeV/230726_145415/0000/Jpsi_9to30_Dstar_SPS_2017_13TeV_AOD_383.root\n'
p479
aS'root://xrootd-redir.ultralight.org:1094//store/group/uerj/mabarros/CRAB_PrivateMC_RunII_UL_SPS_2017/jpsi_ccbar_9to30_VFNS_SPS_2017_13TeV/230726_145415/0000/Jpsi_9to30_Dstar_SPS_2017_13TeV_AOD_384.root\n'
p480
aS'root://xrootd-redir.ultralight.org:1094//store/group/uerj/mabarros/CRAB_PrivateMC_RunII_UL_SPS_2017/jpsi_ccbar_9to30_VFNS_SPS_2017_13TeV/230726_145415/0000/Jpsi_9to30_Dstar_SPS_2017_13TeV_AOD_385.root\n'
p481
aS'root://xrootd-redir.ultralight.org:1094//store/group/uerj/mabarros/CRAB_PrivateMC_RunII_UL_SPS_2017/jpsi_ccbar_9to30_VFNS_SPS_2017_13TeV/230726_145415/0000/Jpsi_9to30_Dstar_SPS_2017_13TeV_AOD_386.root\n'
p482
aS'root://xrootd-redir.ultralight.org:1094//store/group/uerj/mabarros/CRAB_PrivateMC_RunII_UL_SPS_2017/jpsi_ccbar_9to30_VFNS_SPS_2017_13TeV/230726_145415/0000/Jpsi_9to30_Dstar_SPS_2017_13TeV_AOD_387.root\n'
p483
aS'root://xrootd-redir.ultralight.org:1094//store/group/uerj/mabarros/CRAB_PrivateMC_RunII_UL_SPS_2017/jpsi_ccbar_9to30_VFNS_SPS_2017_13TeV/230726_145415/0000/Jpsi_9to30_Dstar_SPS_2017_13TeV_AOD_388.root\n'
p484
aS'root://xrootd-redir.ultralight.org:1094//store/group/uerj/mabarros/CRAB_PrivateMC_RunII_UL_SPS_2017/jpsi_ccbar_9to30_VFNS_SPS_2017_13TeV/230726_145415/0000/Jpsi_9to30_Dstar_SPS_2017_13TeV_AOD_389.root\n'
p485
aS'root://xrootd-redir.ultralight.org:1094//store/group/uerj/mabarros/CRAB_PrivateMC_RunII_UL_SPS_2017/jpsi_ccbar_9to30_VFNS_SPS_2017_13TeV/230726_145415/0000/Jpsi_9to30_Dstar_SPS_2017_13TeV_AOD_390.root\n'
p486
aS'root://xrootd-redir.ultralight.org:1094//store/group/uerj/mabarros/CRAB_PrivateMC_RunII_UL_SPS_2017/jpsi_ccbar_9to30_VFNS_SPS_2017_13TeV/230726_145415/0000/Jpsi_9to30_Dstar_SPS_2017_13TeV_AOD_391.root\n'
p487
aS'root://xrootd-redir.ultralight.org:1094//store/group/uerj/mabarros/CRAB_PrivateMC_RunII_UL_SPS_2017/jpsi_ccbar_9to30_VFNS_SPS_2017_13TeV/230726_145415/0000/Jpsi_9to30_Dstar_SPS_2017_13TeV_AOD_392.root\n'
p488
aS'root://xrootd-redir.ultralight.org:1094//store/group/uerj/mabarros/CRAB_PrivateMC_RunII_UL_SPS_2017/jpsi_ccbar_9to30_VFNS_SPS_2017_13TeV/230726_145415/0000/Jpsi_9to30_Dstar_SPS_2017_13TeV_AOD_393.root\n'
p489
aS'root://xrootd-redir.ultralight.org:1094//store/group/uerj/mabarros/CRAB_PrivateMC_RunII_UL_SPS_2017/jpsi_ccbar_9to30_VFNS_SPS_2017_13TeV/230726_145415/0000/Jpsi_9to30_Dstar_SPS_2017_13TeV_AOD_394.root\n'
p490
aS'root://xrootd-redir.ultralight.org:1094//store/group/uerj/mabarros/CRAB_PrivateMC_RunII_UL_SPS_2017/jpsi_ccbar_9to30_VFNS_SPS_2017_13TeV/230726_145415/0000/Jpsi_9to30_Dstar_SPS_2017_13TeV_AOD_395.root\n'
p491
aS'root://xrootd-redir.ultralight.org:1094//store/group/uerj/mabarros/CRAB_PrivateMC_RunII_UL_SPS_2017/jpsi_ccbar_9to30_VFNS_SPS_2017_13TeV/230726_145415/0000/Jpsi_9to30_Dstar_SPS_2017_13TeV_AOD_396.root\n'
p492
aS'root://xrootd-redir.ultralight.org:1094//store/group/uerj/mabarros/CRAB_PrivateMC_RunII_UL_SPS_2017/jpsi_ccbar_9to30_VFNS_SPS_2017_13TeV/230726_145415/0000/Jpsi_9to30_Dstar_SPS_2017_13TeV_AOD_397.root\n'
p493
aS'root://xrootd-redir.ultralight.org:1094//store/group/uerj/mabarros/CRAB_PrivateMC_RunII_UL_SPS_2017/jpsi_ccbar_9to30_VFNS_SPS_2017_13TeV/230726_145415/0000/Jpsi_9to30_Dstar_SPS_2017_13TeV_AOD_398.root\n'
p494
aS'root://xrootd-redir.ultralight.org:1094//store/group/uerj/mabarros/CRAB_PrivateMC_RunII_UL_SPS_2017/jpsi_ccbar_9to30_VFNS_SPS_2017_13TeV/230726_145415/0000/Jpsi_9to30_Dstar_SPS_2017_13TeV_AOD_399.root\n'
p495
aS'root://xrootd-redir.ultralight.org:1094//store/group/uerj/mabarros/CRAB_PrivateMC_RunII_UL_SPS_2017/jpsi_ccbar_9to30_VFNS_SPS_2017_13TeV/230726_145415/0000/Jpsi_9to30_Dstar_SPS_2017_13TeV_AOD_400.root\n'
p496
aS'root://xrootd-redir.ultralight.org:1094//store/group/uerj/mabarros/CRAB_PrivateMC_RunII_UL_SPS_2017/jpsi_ccbar_9to30_VFNS_SPS_2017_13TeV/230726_145415/0000/Jpsi_9to30_Dstar_SPS_2017_13TeV_AOD_401.root\n'
p497
aS'root://xrootd-redir.ultralight.org:1094//store/group/uerj/mabarros/CRAB_PrivateMC_RunII_UL_SPS_2017/jpsi_ccbar_9to30_VFNS_SPS_2017_13TeV/230726_145415/0000/Jpsi_9to30_Dstar_SPS_2017_13TeV_AOD_402.root\n'
p498
aS'root://xrootd-redir.ultralight.org:1094//store/group/uerj/mabarros/CRAB_PrivateMC_RunII_UL_SPS_2017/jpsi_ccbar_9to30_VFNS_SPS_2017_13TeV/230726_145415/0000/Jpsi_9to30_Dstar_SPS_2017_13TeV_AOD_403.root\n'
p499
aS'root://xrootd-redir.ultralight.org:1094//store/group/uerj/mabarros/CRAB_PrivateMC_RunII_UL_SPS_2017/jpsi_ccbar_9to30_VFNS_SPS_2017_13TeV/230726_145415/0000/Jpsi_9to30_Dstar_SPS_2017_13TeV_AOD_404.root\n'
p500
aS'root://xrootd-redir.ultralight.org:1094//store/group/uerj/mabarros/CRAB_PrivateMC_RunII_UL_SPS_2017/jpsi_ccbar_9to30_VFNS_SPS_2017_13TeV/230726_145415/0000/Jpsi_9to30_Dstar_SPS_2017_13TeV_AOD_405.root\n'
p501
aS'root://xrootd-redir.ultralight.org:1094//store/group/uerj/mabarros/CRAB_PrivateMC_RunII_UL_SPS_2017/jpsi_ccbar_9to30_VFNS_SPS_2017_13TeV/230726_145415/0000/Jpsi_9to30_Dstar_SPS_2017_13TeV_AOD_406.root\n'
p502
aS'root://xrootd-redir.ultralight.org:1094//store/group/uerj/mabarros/CRAB_PrivateMC_RunII_UL_SPS_2017/jpsi_ccbar_9to30_VFNS_SPS_2017_13TeV/230726_145415/0000/Jpsi_9to30_Dstar_SPS_2017_13TeV_AOD_407.root\n'
p503
aS'root://xrootd-redir.ultralight.org:1094//store/group/uerj/mabarros/CRAB_PrivateMC_RunII_UL_SPS_2017/jpsi_ccbar_9to30_VFNS_SPS_2017_13TeV/230726_145415/0000/Jpsi_9to30_Dstar_SPS_2017_13TeV_AOD_408.root\n'
p504
aS'root://xrootd-redir.ultralight.org:1094//store/group/uerj/mabarros/CRAB_PrivateMC_RunII_UL_SPS_2017/jpsi_ccbar_9to30_VFNS_SPS_2017_13TeV/230726_145415/0000/Jpsi_9to30_Dstar_SPS_2017_13TeV_AOD_409.root\n'
p505
aS'root://xrootd-redir.ultralight.org:1094//store/group/uerj/mabarros/CRAB_PrivateMC_RunII_UL_SPS_2017/jpsi_ccbar_9to30_VFNS_SPS_2017_13TeV/230726_145415/0000/Jpsi_9to30_Dstar_SPS_2017_13TeV_AOD_410.root\n'
p506
aS'root://xrootd-redir.ultralight.org:1094//store/group/uerj/mabarros/CRAB_PrivateMC_RunII_UL_SPS_2017/jpsi_ccbar_9to30_VFNS_SPS_2017_13TeV/230726_145415/0000/Jpsi_9to30_Dstar_SPS_2017_13TeV_AOD_411.root\n'
p507
aS'root://xrootd-redir.ultralight.org:1094//store/group/uerj/mabarros/CRAB_PrivateMC_RunII_UL_SPS_2017/jpsi_ccbar_9to30_VFNS_SPS_2017_13TeV/230726_145415/0000/Jpsi_9to30_Dstar_SPS_2017_13TeV_AOD_412.root\n'
p508
aS'root://xrootd-redir.ultralight.org:1094//store/group/uerj/mabarros/CRAB_PrivateMC_RunII_UL_SPS_2017/jpsi_ccbar_9to30_VFNS_SPS_2017_13TeV/230726_145415/0000/Jpsi_9to30_Dstar_SPS_2017_13TeV_AOD_413.root\n'
p509
aS'root://xrootd-redir.ultralight.org:1094//store/group/uerj/mabarros/CRAB_PrivateMC_RunII_UL_SPS_2017/jpsi_ccbar_9to30_VFNS_SPS_2017_13TeV/230726_145415/0000/Jpsi_9to30_Dstar_SPS_2017_13TeV_AOD_414.root\n'
p510
aS'root://xrootd-redir.ultralight.org:1094//store/group/uerj/mabarros/CRAB_PrivateMC_RunII_UL_SPS_2017/jpsi_ccbar_9to30_VFNS_SPS_2017_13TeV/230726_145415/0000/Jpsi_9to30_Dstar_SPS_2017_13TeV_AOD_415.root\n'
p511
aS'root://xrootd-redir.ultralight.org:1094//store/group/uerj/mabarros/CRAB_PrivateMC_RunII_UL_SPS_2017/jpsi_ccbar_9to30_VFNS_SPS_2017_13TeV/230726_145415/0000/Jpsi_9to30_Dstar_SPS_2017_13TeV_AOD_416.root\n'
p512
aS'root://xrootd-redir.ultralight.org:1094//store/group/uerj/mabarros/CRAB_PrivateMC_RunII_UL_SPS_2017/jpsi_ccbar_9to30_VFNS_SPS_2017_13TeV/230726_145415/0000/Jpsi_9to30_Dstar_SPS_2017_13TeV_AOD_417.root\n'
p513
aS'root://xrootd-redir.ultralight.org:1094//store/group/uerj/mabarros/CRAB_PrivateMC_RunII_UL_SPS_2017/jpsi_ccbar_9to30_VFNS_SPS_2017_13TeV/230726_145415/0000/Jpsi_9to30_Dstar_SPS_2017_13TeV_AOD_418.root\n'
p514
aS'root://xrootd-redir.ultralight.org:1094//store/group/uerj/mabarros/CRAB_PrivateMC_RunII_UL_SPS_2017/jpsi_ccbar_9to30_VFNS_SPS_2017_13TeV/230726_145415/0000/Jpsi_9to30_Dstar_SPS_2017_13TeV_AOD_419.root\n'
p515
aS'root://xrootd-redir.ultralight.org:1094//store/group/uerj/mabarros/CRAB_PrivateMC_RunII_UL_SPS_2017/jpsi_ccbar_9to30_VFNS_SPS_2017_13TeV/230726_145415/0000/Jpsi_9to30_Dstar_SPS_2017_13TeV_AOD_420.root\n'
p516
aS'root://xrootd-redir.ultralight.org:1094//store/group/uerj/mabarros/CRAB_PrivateMC_RunII_UL_SPS_2017/jpsi_ccbar_9to30_VFNS_SPS_2017_13TeV/230726_145415/0000/Jpsi_9to30_Dstar_SPS_2017_13TeV_AOD_421.root\n'
p517
aS'root://xrootd-redir.ultralight.org:1094//store/group/uerj/mabarros/CRAB_PrivateMC_RunII_UL_SPS_2017/jpsi_ccbar_9to30_VFNS_SPS_2017_13TeV/230726_145415/0000/Jpsi_9to30_Dstar_SPS_2017_13TeV_AOD_422.root\n'
p518
aS'root://xrootd-redir.ultralight.org:1094//store/group/uerj/mabarros/CRAB_PrivateMC_RunII_UL_SPS_2017/jpsi_ccbar_9to30_VFNS_SPS_2017_13TeV/230726_145415/0000/Jpsi_9to30_Dstar_SPS_2017_13TeV_AOD_423.root\n'
p519
aS'root://xrootd-redir.ultralight.org:1094//store/group/uerj/mabarros/CRAB_PrivateMC_RunII_UL_SPS_2017/jpsi_ccbar_9to30_VFNS_SPS_2017_13TeV/230726_145415/0000/Jpsi_9to30_Dstar_SPS_2017_13TeV_AOD_424.root\n'
p520
aS'root://xrootd-redir.ultralight.org:1094//store/group/uerj/mabarros/CRAB_PrivateMC_RunII_UL_SPS_2017/jpsi_ccbar_9to30_VFNS_SPS_2017_13TeV/230726_145415/0000/Jpsi_9to30_Dstar_SPS_2017_13TeV_AOD_425.root\n'
p521
aS'root://xrootd-redir.ultralight.org:1094//store/group/uerj/mabarros/CRAB_PrivateMC_RunII_UL_SPS_2017/jpsi_ccbar_9to30_VFNS_SPS_2017_13TeV/230726_145415/0000/Jpsi_9to30_Dstar_SPS_2017_13TeV_AOD_426.root\n'
p522
aS'root://xrootd-redir.ultralight.org:1094//store/group/uerj/mabarros/CRAB_PrivateMC_RunII_UL_SPS_2017/jpsi_ccbar_9to30_VFNS_SPS_2017_13TeV/230726_145415/0000/Jpsi_9to30_Dstar_SPS_2017_13TeV_AOD_427.root\n'
p523
aS'root://xrootd-redir.ultralight.org:1094//store/group/uerj/mabarros/CRAB_PrivateMC_RunII_UL_SPS_2017/jpsi_ccbar_9to30_VFNS_SPS_2017_13TeV/230726_145415/0000/Jpsi_9to30_Dstar_SPS_2017_13TeV_AOD_428.root\n'
p524
aS'root://xrootd-redir.ultralight.org:1094//store/group/uerj/mabarros/CRAB_PrivateMC_RunII_UL_SPS_2017/jpsi_ccbar_9to30_VFNS_SPS_2017_13TeV/230726_145415/0000/Jpsi_9to30_Dstar_SPS_2017_13TeV_AOD_429.root\n'
p525
aS'root://xrootd-redir.ultralight.org:1094//store/group/uerj/mabarros/CRAB_PrivateMC_RunII_UL_SPS_2017/jpsi_ccbar_9to30_VFNS_SPS_2017_13TeV/230726_145415/0000/Jpsi_9to30_Dstar_SPS_2017_13TeV_AOD_430.root\n'
p526
aS'root://xrootd-redir.ultralight.org:1094//store/group/uerj/mabarros/CRAB_PrivateMC_RunII_UL_SPS_2017/jpsi_ccbar_9to30_VFNS_SPS_2017_13TeV/230726_145415/0000/Jpsi_9to30_Dstar_SPS_2017_13TeV_AOD_431.root\n'
p527
aS'root://xrootd-redir.ultralight.org:1094//store/group/uerj/mabarros/CRAB_PrivateMC_RunII_UL_SPS_2017/jpsi_ccbar_9to30_VFNS_SPS_2017_13TeV/230726_145415/0000/Jpsi_9to30_Dstar_SPS_2017_13TeV_AOD_432.root\n'
p528
aS'root://xrootd-redir.ultralight.org:1094//store/group/uerj/mabarros/CRAB_PrivateMC_RunII_UL_SPS_2017/jpsi_ccbar_9to30_VFNS_SPS_2017_13TeV/230726_145415/0000/Jpsi_9to30_Dstar_SPS_2017_13TeV_AOD_433.root\n'
p529
aS'root://xrootd-redir.ultralight.org:1094//store/group/uerj/mabarros/CRAB_PrivateMC_RunII_UL_SPS_2017/jpsi_ccbar_9to30_VFNS_SPS_2017_13TeV/230726_145415/0000/Jpsi_9to30_Dstar_SPS_2017_13TeV_AOD_434.root\n'
p530
aS'root://xrootd-redir.ultralight.org:1094//store/group/uerj/mabarros/CRAB_PrivateMC_RunII_UL_SPS_2017/jpsi_ccbar_9to30_VFNS_SPS_2017_13TeV/230726_145415/0000/Jpsi_9to30_Dstar_SPS_2017_13TeV_AOD_435.root\n'
p531
aS'root://xrootd-redir.ultralight.org:1094//store/group/uerj/mabarros/CRAB_PrivateMC_RunII_UL_SPS_2017/jpsi_ccbar_9to30_VFNS_SPS_2017_13TeV/230726_145415/0000/Jpsi_9to30_Dstar_SPS_2017_13TeV_AOD_436.root\n'
p532
aS'root://xrootd-redir.ultralight.org:1094//store/group/uerj/mabarros/CRAB_PrivateMC_RunII_UL_SPS_2017/jpsi_ccbar_9to30_VFNS_SPS_2017_13TeV/230726_145415/0000/Jpsi_9to30_Dstar_SPS_2017_13TeV_AOD_437.root\n'
p533
aS'root://xrootd-redir.ultralight.org:1094//store/group/uerj/mabarros/CRAB_PrivateMC_RunII_UL_SPS_2017/jpsi_ccbar_9to30_VFNS_SPS_2017_13TeV/230726_145415/0000/Jpsi_9to30_Dstar_SPS_2017_13TeV_AOD_438.root\n'
p534
aS'root://xrootd-redir.ultralight.org:1094//store/group/uerj/mabarros/CRAB_PrivateMC_RunII_UL_SPS_2017/jpsi_ccbar_9to30_VFNS_SPS_2017_13TeV/230726_145415/0000/Jpsi_9to30_Dstar_SPS_2017_13TeV_AOD_439.root\n'
p535
aS'root://xrootd-redir.ultralight.org:1094//store/group/uerj/mabarros/CRAB_PrivateMC_RunII_UL_SPS_2017/jpsi_ccbar_9to30_VFNS_SPS_2017_13TeV/230726_145415/0000/Jpsi_9to30_Dstar_SPS_2017_13TeV_AOD_440.root\n'
p536
aS'root://xrootd-redir.ultralight.org:1094//store/group/uerj/mabarros/CRAB_PrivateMC_RunII_UL_SPS_2017/jpsi_ccbar_9to30_VFNS_SPS_2017_13TeV/230726_145415/0000/Jpsi_9to30_Dstar_SPS_2017_13TeV_AOD_441.root\n'
p537
aS'root://xrootd-redir.ultralight.org:1094//store/group/uerj/mabarros/CRAB_PrivateMC_RunII_UL_SPS_2017/jpsi_ccbar_9to30_VFNS_SPS_2017_13TeV/230726_145415/0000/Jpsi_9to30_Dstar_SPS_2017_13TeV_AOD_442.root\n'
p538
aS'root://xrootd-redir.ultralight.org:1094//store/group/uerj/mabarros/CRAB_PrivateMC_RunII_UL_SPS_2017/jpsi_ccbar_9to30_VFNS_SPS_2017_13TeV/230726_145415/0000/Jpsi_9to30_Dstar_SPS_2017_13TeV_AOD_443.root\n'
p539
aS'root://xrootd-redir.ultralight.org:1094//store/group/uerj/mabarros/CRAB_PrivateMC_RunII_UL_SPS_2017/jpsi_ccbar_9to30_VFNS_SPS_2017_13TeV/230726_145415/0000/Jpsi_9to30_Dstar_SPS_2017_13TeV_AOD_444.root\n'
p540
aS'root://xrootd-redir.ultralight.org:1094//store/group/uerj/mabarros/CRAB_PrivateMC_RunII_UL_SPS_2017/jpsi_ccbar_9to30_VFNS_SPS_2017_13TeV/230726_145415/0000/Jpsi_9to30_Dstar_SPS_2017_13TeV_AOD_445.root\n'
p541
aS'root://xrootd-redir.ultralight.org:1094//store/group/uerj/mabarros/CRAB_PrivateMC_RunII_UL_SPS_2017/jpsi_ccbar_9to30_VFNS_SPS_2017_13TeV/230726_145415/0000/Jpsi_9to30_Dstar_SPS_2017_13TeV_AOD_446.root\n'
p542
aS'root://xrootd-redir.ultralight.org:1094//store/group/uerj/mabarros/CRAB_PrivateMC_RunII_UL_SPS_2017/jpsi_ccbar_9to30_VFNS_SPS_2017_13TeV/230726_145415/0000/Jpsi_9to30_Dstar_SPS_2017_13TeV_AOD_447.root\n'
p543
aS'root://xrootd-redir.ultralight.org:1094//store/group/uerj/mabarros/CRAB_PrivateMC_RunII_UL_SPS_2017/jpsi_ccbar_9to30_VFNS_SPS_2017_13TeV/230726_145415/0000/Jpsi_9to30_Dstar_SPS_2017_13TeV_AOD_448.root\n'
p544
aS'root://xrootd-redir.ultralight.org:1094//store/group/uerj/mabarros/CRAB_PrivateMC_RunII_UL_SPS_2017/jpsi_ccbar_9to30_VFNS_SPS_2017_13TeV/230726_145415/0000/Jpsi_9to30_Dstar_SPS_2017_13TeV_AOD_449.root\n'
p545
aS'root://xrootd-redir.ultralight.org:1094//store/group/uerj/mabarros/CRAB_PrivateMC_RunII_UL_SPS_2017/jpsi_ccbar_9to30_VFNS_SPS_2017_13TeV/230726_145415/0000/Jpsi_9to30_Dstar_SPS_2017_13TeV_AOD_450.root\n'
p546
aS'root://xrootd-redir.ultralight.org:1094//store/group/uerj/mabarros/CRAB_PrivateMC_RunII_UL_SPS_2017/jpsi_ccbar_9to30_VFNS_SPS_2017_13TeV/230726_145415/0000/Jpsi_9to30_Dstar_SPS_2017_13TeV_AOD_451.root\n'
p547
aS'root://xrootd-redir.ultralight.org:1094//store/group/uerj/mabarros/CRAB_PrivateMC_RunII_UL_SPS_2017/jpsi_ccbar_9to30_VFNS_SPS_2017_13TeV/230726_145415/0000/Jpsi_9to30_Dstar_SPS_2017_13TeV_AOD_452.root\n'
p548
aS'root://xrootd-redir.ultralight.org:1094//store/group/uerj/mabarros/CRAB_PrivateMC_RunII_UL_SPS_2017/jpsi_ccbar_9to30_VFNS_SPS_2017_13TeV/230726_145415/0000/Jpsi_9to30_Dstar_SPS_2017_13TeV_AOD_453.root\n'
p549
aS'root://xrootd-redir.ultralight.org:1094//store/group/uerj/mabarros/CRAB_PrivateMC_RunII_UL_SPS_2017/jpsi_ccbar_9to30_VFNS_SPS_2017_13TeV/230726_145415/0000/Jpsi_9to30_Dstar_SPS_2017_13TeV_AOD_454.root\n'
p550
aS'root://xrootd-redir.ultralight.org:1094//store/group/uerj/mabarros/CRAB_PrivateMC_RunII_UL_SPS_2017/jpsi_ccbar_9to30_VFNS_SPS_2017_13TeV/230726_145415/0000/Jpsi_9to30_Dstar_SPS_2017_13TeV_AOD_455.root\n'
p551
aS'root://xrootd-redir.ultralight.org:1094//store/group/uerj/mabarros/CRAB_PrivateMC_RunII_UL_SPS_2017/jpsi_ccbar_9to30_VFNS_SPS_2017_13TeV/230726_145415/0000/Jpsi_9to30_Dstar_SPS_2017_13TeV_AOD_456.root\n'
p552
aS'root://xrootd-redir.ultralight.org:1094//store/group/uerj/mabarros/CRAB_PrivateMC_RunII_UL_SPS_2017/jpsi_ccbar_9to30_VFNS_SPS_2017_13TeV/230726_145415/0000/Jpsi_9to30_Dstar_SPS_2017_13TeV_AOD_457.root\n'
p553
aS'root://xrootd-redir.ultralight.org:1094//store/group/uerj/mabarros/CRAB_PrivateMC_RunII_UL_SPS_2017/jpsi_ccbar_9to30_VFNS_SPS_2017_13TeV/230726_145415/0000/Jpsi_9to30_Dstar_SPS_2017_13TeV_AOD_458.root\n'
p554
aS'root://xrootd-redir.ultralight.org:1094//store/group/uerj/mabarros/CRAB_PrivateMC_RunII_UL_SPS_2017/jpsi_ccbar_9to30_VFNS_SPS_2017_13TeV/230726_145415/0000/Jpsi_9to30_Dstar_SPS_2017_13TeV_AOD_459.root\n'
p555
aS'root://xrootd-redir.ultralight.org:1094//store/group/uerj/mabarros/CRAB_PrivateMC_RunII_UL_SPS_2017/jpsi_ccbar_9to30_VFNS_SPS_2017_13TeV/230726_145415/0000/Jpsi_9to30_Dstar_SPS_2017_13TeV_AOD_460.root\n'
p556
aS'root://xrootd-redir.ultralight.org:1094//store/group/uerj/mabarros/CRAB_PrivateMC_RunII_UL_SPS_2017/jpsi_ccbar_9to30_VFNS_SPS_2017_13TeV/230726_145415/0000/Jpsi_9to30_Dstar_SPS_2017_13TeV_AOD_461.root\n'
p557
aS'root://xrootd-redir.ultralight.org:1094//store/group/uerj/mabarros/CRAB_PrivateMC_RunII_UL_SPS_2017/jpsi_ccbar_9to30_VFNS_SPS_2017_13TeV/230726_145415/0000/Jpsi_9to30_Dstar_SPS_2017_13TeV_AOD_462.root\n'
p558
aS'root://xrootd-redir.ultralight.org:1094//store/group/uerj/mabarros/CRAB_PrivateMC_RunII_UL_SPS_2017/jpsi_ccbar_9to30_VFNS_SPS_2017_13TeV/230726_145415/0000/Jpsi_9to30_Dstar_SPS_2017_13TeV_AOD_463.root\n'
p559
aS'root://xrootd-redir.ultralight.org:1094//store/group/uerj/mabarros/CRAB_PrivateMC_RunII_UL_SPS_2017/jpsi_ccbar_9to30_VFNS_SPS_2017_13TeV/230726_145415/0000/Jpsi_9to30_Dstar_SPS_2017_13TeV_AOD_464.root\n'
p560
aS'root://xrootd-redir.ultralight.org:1094//store/group/uerj/mabarros/CRAB_PrivateMC_RunII_UL_SPS_2017/jpsi_ccbar_9to30_VFNS_SPS_2017_13TeV/230726_145415/0000/Jpsi_9to30_Dstar_SPS_2017_13TeV_AOD_465.root\n'
p561
aS'root://xrootd-redir.ultralight.org:1094//store/group/uerj/mabarros/CRAB_PrivateMC_RunII_UL_SPS_2017/jpsi_ccbar_9to30_VFNS_SPS_2017_13TeV/230726_145415/0000/Jpsi_9to30_Dstar_SPS_2017_13TeV_AOD_466.root\n'
p562
aS'root://xrootd-redir.ultralight.org:1094//store/group/uerj/mabarros/CRAB_PrivateMC_RunII_UL_SPS_2017/jpsi_ccbar_9to30_VFNS_SPS_2017_13TeV/230726_145415/0000/Jpsi_9to30_Dstar_SPS_2017_13TeV_AOD_467.root\n'
p563
aS'root://xrootd-redir.ultralight.org:1094//store/group/uerj/mabarros/CRAB_PrivateMC_RunII_UL_SPS_2017/jpsi_ccbar_9to30_VFNS_SPS_2017_13TeV/230726_145415/0000/Jpsi_9to30_Dstar_SPS_2017_13TeV_AOD_468.root\n'
p564
aS'root://xrootd-redir.ultralight.org:1094//store/group/uerj/mabarros/CRAB_PrivateMC_RunII_UL_SPS_2017/jpsi_ccbar_9to30_VFNS_SPS_2017_13TeV/230726_145415/0000/Jpsi_9to30_Dstar_SPS_2017_13TeV_AOD_469.root\n'
p565
aS'root://xrootd-redir.ultralight.org:1094//store/group/uerj/mabarros/CRAB_PrivateMC_RunII_UL_SPS_2017/jpsi_ccbar_9to30_VFNS_SPS_2017_13TeV/230726_145415/0000/Jpsi_9to30_Dstar_SPS_2017_13TeV_AOD_470.root\n'
p566
aS'root://xrootd-redir.ultralight.org:1094//store/group/uerj/mabarros/CRAB_PrivateMC_RunII_UL_SPS_2017/jpsi_ccbar_9to30_VFNS_SPS_2017_13TeV/230726_145415/0000/Jpsi_9to30_Dstar_SPS_2017_13TeV_AOD_471.root\n'
p567
aS'root://xrootd-redir.ultralight.org:1094//store/group/uerj/mabarros/CRAB_PrivateMC_RunII_UL_SPS_2017/jpsi_ccbar_9to30_VFNS_SPS_2017_13TeV/230726_145415/0000/Jpsi_9to30_Dstar_SPS_2017_13TeV_AOD_472.root\n'
p568
aS'root://xrootd-redir.ultralight.org:1094//store/group/uerj/mabarros/CRAB_PrivateMC_RunII_UL_SPS_2017/jpsi_ccbar_9to30_VFNS_SPS_2017_13TeV/230726_145415/0000/Jpsi_9to30_Dstar_SPS_2017_13TeV_AOD_473.root\n'
p569
aS'root://xrootd-redir.ultralight.org:1094//store/group/uerj/mabarros/CRAB_PrivateMC_RunII_UL_SPS_2017/jpsi_ccbar_9to30_VFNS_SPS_2017_13TeV/230726_145415/0000/Jpsi_9to30_Dstar_SPS_2017_13TeV_AOD_474.root\n'
p570
aS'root://xrootd-redir.ultralight.org:1094//store/group/uerj/mabarros/CRAB_PrivateMC_RunII_UL_SPS_2017/jpsi_ccbar_9to30_VFNS_SPS_2017_13TeV/230726_145415/0000/Jpsi_9to30_Dstar_SPS_2017_13TeV_AOD_475.root\n'
p571
aS'root://xrootd-redir.ultralight.org:1094//store/group/uerj/mabarros/CRAB_PrivateMC_RunII_UL_SPS_2017/jpsi_ccbar_9to30_VFNS_SPS_2017_13TeV/230726_145415/0000/Jpsi_9to30_Dstar_SPS_2017_13TeV_AOD_476.root\n'
p572
aS'root://xrootd-redir.ultralight.org:1094//store/group/uerj/mabarros/CRAB_PrivateMC_RunII_UL_SPS_2017/jpsi_ccbar_9to30_VFNS_SPS_2017_13TeV/230726_145415/0000/Jpsi_9to30_Dstar_SPS_2017_13TeV_AOD_477.root\n'
p573
aS'root://xrootd-redir.ultralight.org:1094//store/group/uerj/mabarros/CRAB_PrivateMC_RunII_UL_SPS_2017/jpsi_ccbar_9to30_VFNS_SPS_2017_13TeV/230726_145415/0000/Jpsi_9to30_Dstar_SPS_2017_13TeV_AOD_478.root\n'
p574
aS'root://xrootd-redir.ultralight.org:1094//store/group/uerj/mabarros/CRAB_PrivateMC_RunII_UL_SPS_2017/jpsi_ccbar_9to30_VFNS_SPS_2017_13TeV/230726_145415/0000/Jpsi_9to30_Dstar_SPS_2017_13TeV_AOD_479.root\n'
p575
aS'root://xrootd-redir.ultralight.org:1094//store/group/uerj/mabarros/CRAB_PrivateMC_RunII_UL_SPS_2017/jpsi_ccbar_9to30_VFNS_SPS_2017_13TeV/230726_145415/0000/Jpsi_9to30_Dstar_SPS_2017_13TeV_AOD_480.root\n'
p576
aS'root://xrootd-redir.ultralight.org:1094//store/group/uerj/mabarros/CRAB_PrivateMC_RunII_UL_SPS_2017/jpsi_ccbar_9to30_VFNS_SPS_2017_13TeV/230726_145415/0000/Jpsi_9to30_Dstar_SPS_2017_13TeV_AOD_481.root\n'
p577
aS'root://xrootd-redir.ultralight.org:1094//store/group/uerj/mabarros/CRAB_PrivateMC_RunII_UL_SPS_2017/jpsi_ccbar_9to30_VFNS_SPS_2017_13TeV/230726_145415/0000/Jpsi_9to30_Dstar_SPS_2017_13TeV_AOD_482.root\n'
p578
aS'root://xrootd-redir.ultralight.org:1094//store/group/uerj/mabarros/CRAB_PrivateMC_RunII_UL_SPS_2017/jpsi_ccbar_9to30_VFNS_SPS_2017_13TeV/230726_145415/0000/Jpsi_9to30_Dstar_SPS_2017_13TeV_AOD_483.root\n'
p579
aS'root://xrootd-redir.ultralight.org:1094//store/group/uerj/mabarros/CRAB_PrivateMC_RunII_UL_SPS_2017/jpsi_ccbar_9to30_VFNS_SPS_2017_13TeV/230726_145415/0000/Jpsi_9to30_Dstar_SPS_2017_13TeV_AOD_484.root\n'
p580
aS'root://xrootd-redir.ultralight.org:1094//store/group/uerj/mabarros/CRAB_PrivateMC_RunII_UL_SPS_2017/jpsi_ccbar_9to30_VFNS_SPS_2017_13TeV/230726_145415/0000/Jpsi_9to30_Dstar_SPS_2017_13TeV_AOD_485.root\n'
p581
aS'root://xrootd-redir.ultralight.org:1094//store/group/uerj/mabarros/CRAB_PrivateMC_RunII_UL_SPS_2017/jpsi_ccbar_9to30_VFNS_SPS_2017_13TeV/230726_145415/0000/Jpsi_9to30_Dstar_SPS_2017_13TeV_AOD_486.root\n'
p582
aS'root://xrootd-redir.ultralight.org:1094//store/group/uerj/mabarros/CRAB_PrivateMC_RunII_UL_SPS_2017/jpsi_ccbar_9to30_VFNS_SPS_2017_13TeV/230726_145415/0000/Jpsi_9to30_Dstar_SPS_2017_13TeV_AOD_487.root\n'
p583
aS'root://xrootd-redir.ultralight.org:1094//store/group/uerj/mabarros/CRAB_PrivateMC_RunII_UL_SPS_2017/jpsi_ccbar_9to30_VFNS_SPS_2017_13TeV/230726_145415/0000/Jpsi_9to30_Dstar_SPS_2017_13TeV_AOD_488.root\n'
p584
aS'root://xrootd-redir.ultralight.org:1094//store/group/uerj/mabarros/CRAB_PrivateMC_RunII_UL_SPS_2017/jpsi_ccbar_9to30_VFNS_SPS_2017_13TeV/230726_145415/0000/Jpsi_9to30_Dstar_SPS_2017_13TeV_AOD_489.root\n'
p585
aS'root://xrootd-redir.ultralight.org:1094//store/group/uerj/mabarros/CRAB_PrivateMC_RunII_UL_SPS_2017/jpsi_ccbar_9to30_VFNS_SPS_2017_13TeV/230726_145415/0000/Jpsi_9to30_Dstar_SPS_2017_13TeV_AOD_490.root\n'
p586
aS'root://xrootd-redir.ultralight.org:1094//store/group/uerj/mabarros/CRAB_PrivateMC_RunII_UL_SPS_2017/jpsi_ccbar_9to30_VFNS_SPS_2017_13TeV/230726_145415/0000/Jpsi_9to30_Dstar_SPS_2017_13TeV_AOD_491.root\n'
p587
aS'root://xrootd-redir.ultralight.org:1094//store/group/uerj/mabarros/CRAB_PrivateMC_RunII_UL_SPS_2017/jpsi_ccbar_9to30_VFNS_SPS_2017_13TeV/230726_145415/0000/Jpsi_9to30_Dstar_SPS_2017_13TeV_AOD_492.root\n'
p588
aS'root://xrootd-redir.ultralight.org:1094//store/group/uerj/mabarros/CRAB_PrivateMC_RunII_UL_SPS_2017/jpsi_ccbar_9to30_VFNS_SPS_2017_13TeV/230726_145415/0000/Jpsi_9to30_Dstar_SPS_2017_13TeV_AOD_493.root\n'
p589
aS'root://xrootd-redir.ultralight.org:1094//store/group/uerj/mabarros/CRAB_PrivateMC_RunII_UL_SPS_2017/jpsi_ccbar_9to30_VFNS_SPS_2017_13TeV/230726_145415/0000/Jpsi_9to30_Dstar_SPS_2017_13TeV_AOD_494.root\n'
p590
aS'root://xrootd-redir.ultralight.org:1094//store/group/uerj/mabarros/CRAB_PrivateMC_RunII_UL_SPS_2017/jpsi_ccbar_9to30_VFNS_SPS_2017_13TeV/230726_145415/0000/Jpsi_9to30_Dstar_SPS_2017_13TeV_AOD_495.root\n'
p591
aS'root://xrootd-redir.ultralight.org:1094//store/group/uerj/mabarros/CRAB_PrivateMC_RunII_UL_SPS_2017/jpsi_ccbar_9to30_VFNS_SPS_2017_13TeV/230726_145415/0000/Jpsi_9to30_Dstar_SPS_2017_13TeV_AOD_496.root\n'
p592
aS'root://xrootd-redir.ultralight.org:1094//store/group/uerj/mabarros/CRAB_PrivateMC_RunII_UL_SPS_2017/jpsi_ccbar_9to30_VFNS_SPS_2017_13TeV/230726_145415/0000/Jpsi_9to30_Dstar_SPS_2017_13TeV_AOD_497.root\n'
p593
aS'root://xrootd-redir.ultralight.org:1094//store/group/uerj/mabarros/CRAB_PrivateMC_RunII_UL_SPS_2017/jpsi_ccbar_9to30_VFNS_SPS_2017_13TeV/230726_145415/0000/Jpsi_9to30_Dstar_SPS_2017_13TeV_AOD_498.root\n'
p594
aS'root://xrootd-redir.ultralight.org:1094//store/group/uerj/mabarros/CRAB_PrivateMC_RunII_UL_SPS_2017/jpsi_ccbar_9to30_VFNS_SPS_2017_13TeV/230726_145415/0000/Jpsi_9to30_Dstar_SPS_2017_13TeV_AOD_499.root\n'
p595
aS'root://xrootd-redir.ultralight.org:1094//store/group/uerj/mabarros/CRAB_PrivateMC_RunII_UL_SPS_2017/jpsi_ccbar_9to30_VFNS_SPS_2017_13TeV/230726_145415/0000/Jpsi_9to30_Dstar_SPS_2017_13TeV_AOD_500.root\n'
p596
asg84
I500
sbsg34
g2
(g9
g4
Ntp597
Rp598
(dp599
S'outputFiles'
p600
(lp601
S'Jpsi_9to30_Dstar_SPS_2017_13TeV_NanoAODPlus.root'
p602
asS'numCores'
p603
I1
sg13
I00
sg14
g15
sg16
g17
((lp604
S'psetName'
p605
aS'pluginName'
p606
ag600
ag603
aS'maxMemoryMB'
p607
atp608
Rp609
sg22
g34
sg23
(dp610
sg606
S'Analysis'
p611
sg25
g17
((lp612
tp613
Rp614
sg605
S'nanoanalyzer_mc.py'
p615
sg30
Nsg607
I2000
sbsbsS'voGroup'
p616
g15
sS'Server'
p617
S'cmsweb.cern.ch'
p618
sS'instance'
p619
S'prod'
p620
sS'RequestName'
p621
V230822_211447:mabarros_crab_NANO_MC_jpsi_ccbar_9to30_VFNS_SPS_2017_13TeV_22-08-2023
p622
sS'voRole'
p623
S'NULL'
p624
sS'Port'
p625
g15
s.